
AVRASM ver. 2.1.30  D:\DuAnLon\VuonThongMinh\atmega128\Debug\List\main.asm Fri Sep 23 15:25:10 2022

D:\DuAnLon\VuonThongMinh\atmega128\Debug\List\main.asm(1090): warning: Register r5 already defined by the .DEF directive
D:\DuAnLon\VuonThongMinh\atmega128\Debug\List\main.asm(1091): warning: Register r4 already defined by the .DEF directive
D:\DuAnLon\VuonThongMinh\atmega128\Debug\List\main.asm(1092): warning: Register r7 already defined by the .DEF directive
D:\DuAnLon\VuonThongMinh\atmega128\Debug\List\main.asm(1093): warning: Register r6 already defined by the .DEF directive
D:\DuAnLon\VuonThongMinh\atmega128\Debug\List\main.asm(1094): warning: Register r9 already defined by the .DEF directive
D:\DuAnLon\VuonThongMinh\atmega128\Debug\List\main.asm(1095): warning: Register r8 already defined by the .DEF directive
D:\DuAnLon\VuonThongMinh\atmega128\Debug\List\main.asm(1096): warning: Register r11 already defined by the .DEF directive
D:\DuAnLon\VuonThongMinh\atmega128\Debug\List\main.asm(1097): warning: Register r10 already defined by the .DEF directive
D:\DuAnLon\VuonThongMinh\atmega128\Debug\List\main.asm(1098): warning: Register r13 already defined by the .DEF directive
D:\DuAnLon\VuonThongMinh\atmega128\Debug\List\main.asm(1099): warning: Register r12 already defined by the .DEF directive
                 
                 
                 ;CodeVisionAVR C Compiler V3.12 Advanced
                 ;(C) Copyright 1998-2014 Pavel Haiduc, HP InfoTech s.r.l.
                 ;http://www.hpinfotech.com
                 
                 ;Build configuration    : Debug
                 ;Chip type              : ATmega128
                 ;Program type           : Application
                 ;Clock frequency        : 20.000000 MHz
                 ;Memory model           : Small
                 ;Optimize for           : Size
                 ;(s)printf features     : int, width
                 ;(s)scanf features      : int, width
                 ;External RAM size      : 0
                 ;Data Stack size        : 1024 byte(s)
                 ;Heap size              : 0 byte(s)
                 ;Promote 'char' to 'int': Yes
                 ;'char' is unsigned     : Yes
                 ;8 bit enums            : Yes
                 ;Global 'const' stored in FLASH: Yes
                 ;Enhanced function parameter passing: Yes
                 ;Enhanced core instructions: On
                 ;Automatic register allocation for global variables: On
                 ;Smart register allocation: On
                 
                 	#define _MODEL_SMALL_
                 
                 	#pragma AVRPART ADMIN PART_NAME ATmega128
                 	#pragma AVRPART MEMORY PROG_FLASH 131072
                 	#pragma AVRPART MEMORY EEPROM 4096
                 	#pragma AVRPART MEMORY INT_SRAM SIZE 4096
                 	#pragma AVRPART MEMORY INT_SRAM START_ADDR 0x100
                 
                 	#define CALL_SUPPORTED 1
                 
                 	.LISTMAC
                 	.EQU UDRE=0x5
                 	.EQU RXC=0x7
                 	.EQU USR=0xB
                 	.EQU UDR=0xC
                 	.EQU SPSR=0xE
                 	.EQU SPDR=0xF
                 	.EQU EERE=0x0
                 	.EQU EEWE=0x1
                 	.EQU EEMWE=0x2
                 	.EQU EECR=0x1C
                 	.EQU EEDR=0x1D
                 	.EQU EEARL=0x1E
                 	.EQU EEARH=0x1F
                 	.EQU WDTCR=0x21
                 	.EQU MCUCR=0x35
                 	.EQU RAMPZ=0x3B
                 	.EQU SPL=0x3D
                 	.EQU SPH=0x3E
                 	.EQU SREG=0x3F
                 	.EQU XMCRA=0x6D
                 	.EQU XMCRB=0x6C
                 
                 	.DEF R0X0=R0
                 	.DEF R0X1=R1
                 	.DEF R0X2=R2
                 	.DEF R0X3=R3
                 	.DEF R0X4=R4
                 	.DEF R0X5=R5
                 	.DEF R0X6=R6
                 	.DEF R0X7=R7
                 	.DEF R0X8=R8
                 	.DEF R0X9=R9
                 	.DEF R0XA=R10
                 	.DEF R0XB=R11
                 	.DEF R0XC=R12
                 	.DEF R0XD=R13
                 	.DEF R0XE=R14
                 	.DEF R0XF=R15
                 	.DEF R0X10=R16
                 	.DEF R0X11=R17
                 	.DEF R0X12=R18
                 	.DEF R0X13=R19
                 	.DEF R0X14=R20
                 	.DEF R0X15=R21
                 	.DEF R0X16=R22
                 	.DEF R0X17=R23
                 	.DEF R0X18=R24
                 	.DEF R0X19=R25
                 	.DEF R0X1A=R26
                 	.DEF R0X1B=R27
                 	.DEF R0X1C=R28
                 	.DEF R0X1D=R29
                 	.DEF R0X1E=R30
                 	.DEF R0X1F=R31
                 
                 	.EQU __SRAM_START=0x0100
                 	.EQU __SRAM_END=0x10FF
                 	.EQU __DSTACK_SIZE=0x0400
                 	.EQU __HEAP_SIZE=0x0000
                 	.EQU __CLEAR_SRAM_SIZE=__SRAM_END-__SRAM_START+1
                 
                 	.MACRO __CPD1N
                 	CPI  R30,LOW(@0)
                 	LDI  R26,HIGH(@0)
                 	CPC  R31,R26
                 	LDI  R26,BYTE3(@0)
                 	CPC  R22,R26
                 	LDI  R26,BYTE4(@0)
                 	CPC  R23,R26
                 	.ENDM
                 
                 	.MACRO __CPD2N
                 	CPI  R26,LOW(@0)
                 	LDI  R30,HIGH(@0)
                 	CPC  R27,R30
                 	LDI  R30,BYTE3(@0)
                 	CPC  R24,R30
                 	LDI  R30,BYTE4(@0)
                 	CPC  R25,R30
                 	.ENDM
                 
                 	.MACRO __CPWRR
                 	CP   R@0,R@2
                 	CPC  R@1,R@3
                 	.ENDM
                 
                 	.MACRO __CPWRN
                 	CPI  R@0,LOW(@2)
                 	LDI  R30,HIGH(@2)
                 	CPC  R@1,R30
                 	.ENDM
                 
                 	.MACRO __ADDB1MN
                 	SUBI R30,LOW(-@0-(@1))
                 	.ENDM
                 
                 	.MACRO __ADDB2MN
                 	SUBI R26,LOW(-@0-(@1))
                 	.ENDM
                 
                 	.MACRO __ADDW1MN
                 	SUBI R30,LOW(-@0-(@1))
                 	SBCI R31,HIGH(-@0-(@1))
                 	.ENDM
                 
                 	.MACRO __ADDW2MN
                 	SUBI R26,LOW(-@0-(@1))
                 	SBCI R27,HIGH(-@0-(@1))
                 	.ENDM
                 
                 	.MACRO __ADDW1FN
                 	SUBI R30,LOW(-2*@0-(@1))
                 	SBCI R31,HIGH(-2*@0-(@1))
                 	.ENDM
                 
                 	.MACRO __ADDD1FN
                 	SUBI R30,LOW(-2*@0-(@1))
                 	SBCI R31,HIGH(-2*@0-(@1))
                 	SBCI R22,BYTE3(-2*@0-(@1))
                 	.ENDM
                 
                 	.MACRO __ADDD1N
                 	SUBI R30,LOW(-@0)
                 	SBCI R31,HIGH(-@0)
                 	SBCI R22,BYTE3(-@0)
                 	SBCI R23,BYTE4(-@0)
                 	.ENDM
                 
                 	.MACRO __ADDD2N
                 	SUBI R26,LOW(-@0)
                 	SBCI R27,HIGH(-@0)
                 	SBCI R24,BYTE3(-@0)
                 	SBCI R25,BYTE4(-@0)
                 	.ENDM
                 
                 	.MACRO __SUBD1N
                 	SUBI R30,LOW(@0)
                 	SBCI R31,HIGH(@0)
                 	SBCI R22,BYTE3(@0)
                 	SBCI R23,BYTE4(@0)
                 	.ENDM
                 
                 	.MACRO __SUBD2N
                 	SUBI R26,LOW(@0)
                 	SBCI R27,HIGH(@0)
                 	SBCI R24,BYTE3(@0)
                 	SBCI R25,BYTE4(@0)
                 	.ENDM
                 
                 	.MACRO __ANDBMNN
                 	LDS  R30,@0+(@1)
                 	ANDI R30,LOW(@2)
                 	STS  @0+(@1),R30
                 	.ENDM
                 
                 	.MACRO __ANDWMNN
                 	LDS  R30,@0+(@1)
                 	ANDI R30,LOW(@2)
                 	STS  @0+(@1),R30
                 	LDS  R30,@0+(@1)+1
                 	ANDI R30,HIGH(@2)
                 	STS  @0+(@1)+1,R30
                 	.ENDM
                 
                 	.MACRO __ANDD1N
                 	ANDI R30,LOW(@0)
                 	ANDI R31,HIGH(@0)
                 	ANDI R22,BYTE3(@0)
                 	ANDI R23,BYTE4(@0)
                 	.ENDM
                 
                 	.MACRO __ANDD2N
                 	ANDI R26,LOW(@0)
                 	ANDI R27,HIGH(@0)
                 	ANDI R24,BYTE3(@0)
                 	ANDI R25,BYTE4(@0)
                 	.ENDM
                 
                 	.MACRO __ORBMNN
                 	LDS  R30,@0+(@1)
                 	ORI  R30,LOW(@2)
                 	STS  @0+(@1),R30
                 	.ENDM
                 
                 	.MACRO __ORWMNN
                 	LDS  R30,@0+(@1)
                 	ORI  R30,LOW(@2)
                 	STS  @0+(@1),R30
                 	LDS  R30,@0+(@1)+1
                 	ORI  R30,HIGH(@2)
                 	STS  @0+(@1)+1,R30
                 	.ENDM
                 
                 	.MACRO __ORD1N
                 	ORI  R30,LOW(@0)
                 	ORI  R31,HIGH(@0)
                 	ORI  R22,BYTE3(@0)
                 	ORI  R23,BYTE4(@0)
                 	.ENDM
                 
                 	.MACRO __ORD2N
                 	ORI  R26,LOW(@0)
                 	ORI  R27,HIGH(@0)
                 	ORI  R24,BYTE3(@0)
                 	ORI  R25,BYTE4(@0)
                 	.ENDM
                 
                 	.MACRO __DELAY_USB
                 	LDI  R24,LOW(@0)
                 __DELAY_USB_LOOP:
                 	DEC  R24
                 	BRNE __DELAY_USB_LOOP
                 	.ENDM
                 
                 	.MACRO __DELAY_USW
                 	LDI  R24,LOW(@0)
                 	LDI  R25,HIGH(@0)
                 __DELAY_USW_LOOP:
                 	SBIW R24,1
                 	BRNE __DELAY_USW_LOOP
                 	.ENDM
                 
                 	.MACRO __GETD1S
                 	LDD  R30,Y+@0
                 	LDD  R31,Y+@0+1
                 	LDD  R22,Y+@0+2
                 	LDD  R23,Y+@0+3
                 	.ENDM
                 
                 	.MACRO __GETD2S
                 	LDD  R26,Y+@0
                 	LDD  R27,Y+@0+1
                 	LDD  R24,Y+@0+2
                 	LDD  R25,Y+@0+3
                 	.ENDM
                 
                 	.MACRO __PUTD1S
                 	STD  Y+@0,R30
                 	STD  Y+@0+1,R31
                 	STD  Y+@0+2,R22
                 	STD  Y+@0+3,R23
                 	.ENDM
                 
                 	.MACRO __PUTD2S
                 	STD  Y+@0,R26
                 	STD  Y+@0+1,R27
                 	STD  Y+@0+2,R24
                 	STD  Y+@0+3,R25
                 	.ENDM
                 
                 	.MACRO __PUTDZ2
                 	STD  Z+@0,R26
                 	STD  Z+@0+1,R27
                 	STD  Z+@0+2,R24
                 	STD  Z+@0+3,R25
                 	.ENDM
                 
                 	.MACRO __CLRD1S
                 	STD  Y+@0,R30
                 	STD  Y+@0+1,R30
                 	STD  Y+@0+2,R30
                 	STD  Y+@0+3,R30
                 	.ENDM
                 
                 	.MACRO __POINTB1MN
                 	LDI  R30,LOW(@0+(@1))
                 	.ENDM
                 
                 	.MACRO __POINTW1MN
                 	LDI  R30,LOW(@0+(@1))
                 	LDI  R31,HIGH(@0+(@1))
                 	.ENDM
                 
                 	.MACRO __POINTD1M
                 	LDI  R30,LOW(@0)
                 	LDI  R31,HIGH(@0)
                 	LDI  R22,BYTE3(@0)
                 	LDI  R23,BYTE4(@0)
                 	.ENDM
                 
                 	.MACRO __POINTW1FN
                 	LDI  R30,LOW(2*@0+(@1))
                 	LDI  R31,HIGH(2*@0+(@1))
                 	.ENDM
                 
                 	.MACRO __POINTD1FN
                 	LDI  R30,LOW(2*@0+(@1))
                 	LDI  R31,HIGH(2*@0+(@1))
                 	LDI  R22,BYTE3(2*@0+(@1))
                 	LDI  R23,BYTE4(2*@0+(@1))
                 	.ENDM
                 
                 	.MACRO __POINTB2MN
                 	LDI  R26,LOW(@0+(@1))
                 	.ENDM
                 
                 	.MACRO __POINTW2MN
                 	LDI  R26,LOW(@0+(@1))
                 	LDI  R27,HIGH(@0+(@1))
                 	.ENDM
                 
                 	.MACRO __POINTW2FN
                 	LDI  R26,LOW(2*@0+(@1))
                 	LDI  R27,HIGH(2*@0+(@1))
                 	.ENDM
                 
                 	.MACRO __POINTD2FN
                 	LDI  R26,LOW(2*@0+(@1))
                 	LDI  R27,HIGH(2*@0+(@1))
                 	LDI  R24,BYTE3(2*@0+(@1))
                 	LDI  R25,BYTE4(2*@0+(@1))
                 	.ENDM
                 
                 	.MACRO __POINTBRM
                 	LDI  R@0,LOW(@1)
                 	.ENDM
                 
                 	.MACRO __POINTWRM
                 	LDI  R@0,LOW(@2)
                 	LDI  R@1,HIGH(@2)
                 	.ENDM
                 
                 	.MACRO __POINTBRMN
                 	LDI  R@0,LOW(@1+(@2))
                 	.ENDM
                 
                 	.MACRO __POINTWRMN
                 	LDI  R@0,LOW(@2+(@3))
                 	LDI  R@1,HIGH(@2+(@3))
                 	.ENDM
                 
                 	.MACRO __POINTWRFN
                 	LDI  R@0,LOW(@2*2+(@3))
                 	LDI  R@1,HIGH(@2*2+(@3))
                 	.ENDM
                 
                 	.MACRO __GETD1N
                 	LDI  R30,LOW(@0)
                 	LDI  R31,HIGH(@0)
                 	LDI  R22,BYTE3(@0)
                 	LDI  R23,BYTE4(@0)
                 	.ENDM
                 
                 	.MACRO __GETD2N
                 	LDI  R26,LOW(@0)
                 	LDI  R27,HIGH(@0)
                 	LDI  R24,BYTE3(@0)
                 	LDI  R25,BYTE4(@0)
                 	.ENDM
                 
                 	.MACRO __GETB1MN
                 	LDS  R30,@0+(@1)
                 	.ENDM
                 
                 	.MACRO __GETB1HMN
                 	LDS  R31,@0+(@1)
                 	.ENDM
                 
                 	.MACRO __GETW1MN
                 	LDS  R30,@0+(@1)
                 	LDS  R31,@0+(@1)+1
                 	.ENDM
                 
                 	.MACRO __GETD1MN
                 	LDS  R30,@0+(@1)
                 	LDS  R31,@0+(@1)+1
                 	LDS  R22,@0+(@1)+2
                 	LDS  R23,@0+(@1)+3
                 	.ENDM
                 
                 	.MACRO __GETBRMN
                 	LDS  R@0,@1+(@2)
                 	.ENDM
                 
                 	.MACRO __GETWRMN
                 	LDS  R@0,@2+(@3)
                 	LDS  R@1,@2+(@3)+1
                 	.ENDM
                 
                 	.MACRO __GETWRZ
                 	LDD  R@0,Z+@2
                 	LDD  R@1,Z+@2+1
                 	.ENDM
                 
                 	.MACRO __GETD2Z
                 	LDD  R26,Z+@0
                 	LDD  R27,Z+@0+1
                 	LDD  R24,Z+@0+2
                 	LDD  R25,Z+@0+3
                 	.ENDM
                 
                 	.MACRO __GETB2MN
                 	LDS  R26,@0+(@1)
                 	.ENDM
                 
                 	.MACRO __GETW2MN
                 	LDS  R26,@0+(@1)
                 	LDS  R27,@0+(@1)+1
                 	.ENDM
                 
                 	.MACRO __GETD2MN
                 	LDS  R26,@0+(@1)
                 	LDS  R27,@0+(@1)+1
                 	LDS  R24,@0+(@1)+2
                 	LDS  R25,@0+(@1)+3
                 	.ENDM
                 
                 	.MACRO __PUTB1MN
                 	STS  @0+(@1),R30
                 	.ENDM
                 
                 	.MACRO __PUTW1MN
                 	STS  @0+(@1),R30
                 	STS  @0+(@1)+1,R31
                 	.ENDM
                 
                 	.MACRO __PUTD1MN
                 	STS  @0+(@1),R30
                 	STS  @0+(@1)+1,R31
                 	STS  @0+(@1)+2,R22
                 	STS  @0+(@1)+3,R23
                 	.ENDM
                 
                 	.MACRO __PUTB1EN
                 	LDI  R26,LOW(@0+(@1))
                 	LDI  R27,HIGH(@0+(@1))
                 	CALL __EEPROMWRB
                 	.ENDM
                 
                 	.MACRO __PUTW1EN
                 	LDI  R26,LOW(@0+(@1))
                 	LDI  R27,HIGH(@0+(@1))
                 	CALL __EEPROMWRW
                 	.ENDM
                 
                 	.MACRO __PUTD1EN
                 	LDI  R26,LOW(@0+(@1))
                 	LDI  R27,HIGH(@0+(@1))
                 	CALL __EEPROMWRD
                 	.ENDM
                 
                 	.MACRO __PUTBR0MN
                 	STS  @0+(@1),R0
                 	.ENDM
                 
                 	.MACRO __PUTBMRN
                 	STS  @0+(@1),R@2
                 	.ENDM
                 
                 	.MACRO __PUTWMRN
                 	STS  @0+(@1),R@2
                 	STS  @0+(@1)+1,R@3
                 	.ENDM
                 
                 	.MACRO __PUTBZR
                 	STD  Z+@1,R@0
                 	.ENDM
                 
                 	.MACRO __PUTWZR
                 	STD  Z+@2,R@0
                 	STD  Z+@2+1,R@1
                 	.ENDM
                 
                 	.MACRO __GETW1R
                 	MOV  R30,R@0
                 	MOV  R31,R@1
                 	.ENDM
                 
                 	.MACRO __GETW2R
                 	MOV  R26,R@0
                 	MOV  R27,R@1
                 	.ENDM
                 
                 	.MACRO __GETWRN
                 	LDI  R@0,LOW(@2)
                 	LDI  R@1,HIGH(@2)
                 	.ENDM
                 
                 	.MACRO __PUTW1R
                 	MOV  R@0,R30
                 	MOV  R@1,R31
                 	.ENDM
                 
                 	.MACRO __PUTW2R
                 	MOV  R@0,R26
                 	MOV  R@1,R27
                 	.ENDM
                 
                 	.MACRO __ADDWRN
                 	SUBI R@0,LOW(-@2)
                 	SBCI R@1,HIGH(-@2)
                 	.ENDM
                 
                 	.MACRO __ADDWRR
                 	ADD  R@0,R@2
                 	ADC  R@1,R@3
                 	.ENDM
                 
                 	.MACRO __SUBWRN
                 	SUBI R@0,LOW(@2)
                 	SBCI R@1,HIGH(@2)
                 	.ENDM
                 
                 	.MACRO __SUBWRR
                 	SUB  R@0,R@2
                 	SBC  R@1,R@3
                 	.ENDM
                 
                 	.MACRO __ANDWRN
                 	ANDI R@0,LOW(@2)
                 	ANDI R@1,HIGH(@2)
                 	.ENDM
                 
                 	.MACRO __ANDWRR
                 	AND  R@0,R@2
                 	AND  R@1,R@3
                 	.ENDM
                 
                 	.MACRO __ORWRN
                 	ORI  R@0,LOW(@2)
                 	ORI  R@1,HIGH(@2)
                 	.ENDM
                 
                 	.MACRO __ORWRR
                 	OR   R@0,R@2
                 	OR   R@1,R@3
                 	.ENDM
                 
                 	.MACRO __EORWRR
                 	EOR  R@0,R@2
                 	EOR  R@1,R@3
                 	.ENDM
                 
                 	.MACRO __GETWRS
                 	LDD  R@0,Y+@2
                 	LDD  R@1,Y+@2+1
                 	.ENDM
                 
                 	.MACRO __PUTBSR
                 	STD  Y+@1,R@0
                 	.ENDM
                 
                 	.MACRO __PUTWSR
                 	STD  Y+@2,R@0
                 	STD  Y+@2+1,R@1
                 	.ENDM
                 
                 	.MACRO __MOVEWRR
                 	MOV  R@0,R@2
                 	MOV  R@1,R@3
                 	.ENDM
                 
                 	.MACRO __INWR
                 	IN   R@0,@2
                 	IN   R@1,@2+1
                 	.ENDM
                 
                 	.MACRO __OUTWR
                 	OUT  @2+1,R@1
                 	OUT  @2,R@0
                 	.ENDM
                 
                 	.MACRO __CALL1MN
                 	LDS  R30,@0+(@1)
                 	LDS  R31,@0+(@1)+1
                 	ICALL
                 	.ENDM
                 
                 	.MACRO __CALL1FN
                 	LDI  R30,LOW(2*@0+(@1))
                 	LDI  R31,HIGH(2*@0+(@1))
                 	CALL __GETW1PF
                 	ICALL
                 	.ENDM
                 
                 	.MACRO __CALL2EN
                 	PUSH R26
                 	PUSH R27
                 	LDI  R26,LOW(@0+(@1))
                 	LDI  R27,HIGH(@0+(@1))
                 	CALL __EEPROMRDW
                 	POP  R27
                 	POP  R26
                 	ICALL
                 	.ENDM
                 
                 	.MACRO __CALL2EX
                 	SUBI R26,LOW(-@0)
                 	SBCI R27,HIGH(-@0)
                 	CALL __EEPROMRDD
                 	ICALL
                 	.ENDM
                 
                 	.MACRO __GETW1STACK
                 	IN   R30,SPL
                 	IN   R31,SPH
                 	ADIW R30,@0+1
                 	LD   R0,Z+
                 	LD   R31,Z
                 	MOV  R30,R0
                 	.ENDM
                 
                 	.MACRO __GETD1STACK
                 	IN   R30,SPL
                 	IN   R31,SPH
                 	ADIW R30,@0+1
                 	LD   R0,Z+
                 	LD   R1,Z+
                 	LD   R22,Z
                 	MOVW R30,R0
                 	.ENDM
                 
                 	.MACRO __NBST
                 	BST  R@0,@1
                 	IN   R30,SREG
                 	LDI  R31,0x40
                 	EOR  R30,R31
                 	OUT  SREG,R30
                 	.ENDM
                 
                 
                 	.MACRO __PUTB1SN
                 	LDD  R26,Y+@0
                 	LDD  R27,Y+@0+1
                 	SUBI R26,LOW(-@1)
                 	SBCI R27,HIGH(-@1)
                 	ST   X,R30
                 	.ENDM
                 
                 	.MACRO __PUTW1SN
                 	LDD  R26,Y+@0
                 	LDD  R27,Y+@0+1
                 	SUBI R26,LOW(-@1)
                 	SBCI R27,HIGH(-@1)
                 	ST   X+,R30
                 	ST   X,R31
                 	.ENDM
                 
                 	.MACRO __PUTD1SN
                 	LDD  R26,Y+@0
                 	LDD  R27,Y+@0+1
                 	SUBI R26,LOW(-@1)
                 	SBCI R27,HIGH(-@1)
                 	CALL __PUTDP1
                 	.ENDM
                 
                 	.MACRO __PUTB1SNS
                 	LDD  R26,Y+@0
                 	LDD  R27,Y+@0+1
                 	ADIW R26,@1
                 	ST   X,R30
                 	.ENDM
                 
                 	.MACRO __PUTW1SNS
                 	LDD  R26,Y+@0
                 	LDD  R27,Y+@0+1
                 	ADIW R26,@1
                 	ST   X+,R30
                 	ST   X,R31
                 	.ENDM
                 
                 	.MACRO __PUTD1SNS
                 	LDD  R26,Y+@0
                 	LDD  R27,Y+@0+1
                 	ADIW R26,@1
                 	CALL __PUTDP1
                 	.ENDM
                 
                 	.MACRO __PUTB1PMN
                 	LDS  R26,@0
                 	LDS  R27,@0+1
                 	SUBI R26,LOW(-@1)
                 	SBCI R27,HIGH(-@1)
                 	ST   X,R30
                 	.ENDM
                 
                 	.MACRO __PUTW1PMN
                 	LDS  R26,@0
                 	LDS  R27,@0+1
                 	SUBI R26,LOW(-@1)
                 	SBCI R27,HIGH(-@1)
                 	ST   X+,R30
                 	ST   X,R31
                 	.ENDM
                 
                 	.MACRO __PUTD1PMN
                 	LDS  R26,@0
                 	LDS  R27,@0+1
                 	SUBI R26,LOW(-@1)
                 	SBCI R27,HIGH(-@1)
                 	CALL __PUTDP1
                 	.ENDM
                 
                 	.MACRO __PUTB1PMNS
                 	LDS  R26,@0
                 	LDS  R27,@0+1
                 	ADIW R26,@1
                 	ST   X,R30
                 	.ENDM
                 
                 	.MACRO __PUTW1PMNS
                 	LDS  R26,@0
                 	LDS  R27,@0+1
                 	ADIW R26,@1
                 	ST   X+,R30
                 	ST   X,R31
                 	.ENDM
                 
                 	.MACRO __PUTD1PMNS
                 	LDS  R26,@0
                 	LDS  R27,@0+1
                 	ADIW R26,@1
                 	CALL __PUTDP1
                 	.ENDM
                 
                 	.MACRO __PUTB1RN
                 	MOVW R26,R@0
                 	SUBI R26,LOW(-@1)
                 	SBCI R27,HIGH(-@1)
                 	ST   X,R30
                 	.ENDM
                 
                 	.MACRO __PUTW1RN
                 	MOVW R26,R@0
                 	SUBI R26,LOW(-@1)
                 	SBCI R27,HIGH(-@1)
                 	ST   X+,R30
                 	ST   X,R31
                 	.ENDM
                 
                 	.MACRO __PUTD1RN
                 	MOVW R26,R@0
                 	SUBI R26,LOW(-@1)
                 	SBCI R27,HIGH(-@1)
                 	CALL __PUTDP1
                 	.ENDM
                 
                 	.MACRO __PUTB1RNS
                 	MOVW R26,R@0
                 	ADIW R26,@1
                 	ST   X,R30
                 	.ENDM
                 
                 	.MACRO __PUTW1RNS
                 	MOVW R26,R@0
                 	ADIW R26,@1
                 	ST   X+,R30
                 	ST   X,R31
                 	.ENDM
                 
                 	.MACRO __PUTD1RNS
                 	MOVW R26,R@0
                 	ADIW R26,@1
                 	CALL __PUTDP1
                 	.ENDM
                 
                 	.MACRO __PUTB1RON
                 	MOV  R26,R@0
                 	MOV  R27,R@1
                 	SUBI R26,LOW(-@2)
                 	SBCI R27,HIGH(-@2)
                 	ST   X,R30
                 	.ENDM
                 
                 	.MACRO __PUTW1RON
                 	MOV  R26,R@0
                 	MOV  R27,R@1
                 	SUBI R26,LOW(-@2)
                 	SBCI R27,HIGH(-@2)
                 	ST   X+,R30
                 	ST   X,R31
                 	.ENDM
                 
                 	.MACRO __PUTD1RON
                 	MOV  R26,R@0
                 	MOV  R27,R@1
                 	SUBI R26,LOW(-@2)
                 	SBCI R27,HIGH(-@2)
                 	CALL __PUTDP1
                 	.ENDM
                 
                 	.MACRO __PUTB1RONS
                 	MOV  R26,R@0
                 	MOV  R27,R@1
                 	ADIW R26,@2
                 	ST   X,R30
                 	.ENDM
                 
                 	.MACRO __PUTW1RONS
                 	MOV  R26,R@0
                 	MOV  R27,R@1
                 	ADIW R26,@2
                 	ST   X+,R30
                 	ST   X,R31
                 	.ENDM
                 
                 	.MACRO __PUTD1RONS
                 	MOV  R26,R@0
                 	MOV  R27,R@1
                 	ADIW R26,@2
                 	CALL __PUTDP1
                 	.ENDM
                 
                 
                 	.MACRO __GETB1SX
                 	MOVW R30,R28
                 	SUBI R30,LOW(-@0)
                 	SBCI R31,HIGH(-@0)
                 	LD   R30,Z
                 	.ENDM
                 
                 	.MACRO __GETB1HSX
                 	MOVW R30,R28
                 	SUBI R30,LOW(-@0)
                 	SBCI R31,HIGH(-@0)
                 	LD   R31,Z
                 	.ENDM
                 
                 	.MACRO __GETW1SX
                 	MOVW R30,R28
                 	SUBI R30,LOW(-@0)
                 	SBCI R31,HIGH(-@0)
                 	LD   R0,Z+
                 	LD   R31,Z
                 	MOV  R30,R0
                 	.ENDM
                 
                 	.MACRO __GETD1SX
                 	MOVW R30,R28
                 	SUBI R30,LOW(-@0)
                 	SBCI R31,HIGH(-@0)
                 	LD   R0,Z+
                 	LD   R1,Z+
                 	LD   R22,Z+
                 	LD   R23,Z
                 	MOVW R30,R0
                 	.ENDM
                 
                 	.MACRO __GETB2SX
                 	MOVW R26,R28
                 	SUBI R26,LOW(-@0)
                 	SBCI R27,HIGH(-@0)
                 	LD   R26,X
                 	.ENDM
                 
                 	.MACRO __GETW2SX
                 	MOVW R26,R28
                 	SUBI R26,LOW(-@0)
                 	SBCI R27,HIGH(-@0)
                 	LD   R0,X+
                 	LD   R27,X
                 	MOV  R26,R0
                 	.ENDM
                 
                 	.MACRO __GETD2SX
                 	MOVW R26,R28
                 	SUBI R26,LOW(-@0)
                 	SBCI R27,HIGH(-@0)
                 	LD   R0,X+
                 	LD   R1,X+
                 	LD   R24,X+
                 	LD   R25,X
                 	MOVW R26,R0
                 	.ENDM
                 
                 	.MACRO __GETBRSX
                 	MOVW R30,R28
                 	SUBI R30,LOW(-@1)
                 	SBCI R31,HIGH(-@1)
                 	LD   R@0,Z
                 	.ENDM
                 
                 	.MACRO __GETWRSX
                 	MOVW R30,R28
                 	SUBI R30,LOW(-@2)
                 	SBCI R31,HIGH(-@2)
                 	LD   R@0,Z+
                 	LD   R@1,Z
                 	.ENDM
                 
                 	.MACRO __GETBRSX2
                 	MOVW R26,R28
                 	SUBI R26,LOW(-@1)
                 	SBCI R27,HIGH(-@1)
                 	LD   R@0,X
                 	.ENDM
                 
                 	.MACRO __GETWRSX2
                 	MOVW R26,R28
                 	SUBI R26,LOW(-@2)
                 	SBCI R27,HIGH(-@2)
                 	LD   R@0,X+
                 	LD   R@1,X
                 	.ENDM
                 
                 	.MACRO __LSLW8SX
                 	MOVW R30,R28
                 	SUBI R30,LOW(-@0)
                 	SBCI R31,HIGH(-@0)
                 	LD   R31,Z
                 	CLR  R30
                 	.ENDM
                 
                 	.MACRO __PUTB1SX
                 	MOVW R26,R28
                 	SUBI R26,LOW(-@0)
                 	SBCI R27,HIGH(-@0)
                 	ST   X,R30
                 	.ENDM
                 
                 	.MACRO __PUTW1SX
                 	MOVW R26,R28
                 	SUBI R26,LOW(-@0)
                 	SBCI R27,HIGH(-@0)
                 	ST   X+,R30
                 	ST   X,R31
                 	.ENDM
                 
                 	.MACRO __PUTD1SX
                 	MOVW R26,R28
                 	SUBI R26,LOW(-@0)
                 	SBCI R27,HIGH(-@0)
                 	ST   X+,R30
                 	ST   X+,R31
                 	ST   X+,R22
                 	ST   X,R23
                 	.ENDM
                 
                 	.MACRO __CLRW1SX
                 	MOVW R26,R28
                 	SUBI R26,LOW(-@0)
                 	SBCI R27,HIGH(-@0)
                 	ST   X+,R30
                 	ST   X,R30
                 	.ENDM
                 
                 	.MACRO __CLRD1SX
                 	MOVW R26,R28
                 	SUBI R26,LOW(-@0)
                 	SBCI R27,HIGH(-@0)
                 	ST   X+,R30
                 	ST   X+,R30
                 	ST   X+,R30
                 	ST   X,R30
                 	.ENDM
                 
                 	.MACRO __PUTB2SX
                 	MOVW R30,R28
                 	SUBI R30,LOW(-@0)
                 	SBCI R31,HIGH(-@0)
                 	ST   Z,R26
                 	.ENDM
                 
                 	.MACRO __PUTW2SX
                 	MOVW R30,R28
                 	SUBI R30,LOW(-@0)
                 	SBCI R31,HIGH(-@0)
                 	ST   Z+,R26
                 	ST   Z,R27
                 	.ENDM
                 
                 	.MACRO __PUTD2SX
                 	MOVW R30,R28
                 	SUBI R30,LOW(-@0)
                 	SBCI R31,HIGH(-@0)
                 	ST   Z+,R26
                 	ST   Z+,R27
                 	ST   Z+,R24
                 	ST   Z,R25
                 	.ENDM
                 
                 	.MACRO __PUTBSRX
                 	MOVW R30,R28
                 	SUBI R30,LOW(-@1)
                 	SBCI R31,HIGH(-@1)
                 	ST   Z,R@0
                 	.ENDM
                 
                 	.MACRO __PUTWSRX
                 	MOVW R30,R28
                 	SUBI R30,LOW(-@2)
                 	SBCI R31,HIGH(-@2)
                 	ST   Z+,R@0
                 	ST   Z,R@1
                 	.ENDM
                 
                 	.MACRO __PUTB1SNX
                 	MOVW R26,R28
                 	SUBI R26,LOW(-@0)
                 	SBCI R27,HIGH(-@0)
                 	LD   R0,X+
                 	LD   R27,X
                 	MOV  R26,R0
                 	SUBI R26,LOW(-@1)
                 	SBCI R27,HIGH(-@1)
                 	ST   X,R30
                 	.ENDM
                 
                 	.MACRO __PUTW1SNX
                 	MOVW R26,R28
                 	SUBI R26,LOW(-@0)
                 	SBCI R27,HIGH(-@0)
                 	LD   R0,X+
                 	LD   R27,X
                 	MOV  R26,R0
                 	SUBI R26,LOW(-@1)
                 	SBCI R27,HIGH(-@1)
                 	ST   X+,R30
                 	ST   X,R31
                 	.ENDM
                 
                 	.MACRO __PUTD1SNX
                 	MOVW R26,R28
                 	SUBI R26,LOW(-@0)
                 	SBCI R27,HIGH(-@0)
                 	LD   R0,X+
                 	LD   R27,X
                 	MOV  R26,R0
                 	SUBI R26,LOW(-@1)
                 	SBCI R27,HIGH(-@1)
                 	ST   X+,R30
                 	ST   X+,R31
                 	ST   X+,R22
                 	ST   X,R23
                 	.ENDM
                 
                 	.MACRO __MULBRR
                 	MULS R@0,R@1
                 	MOVW R30,R0
                 	.ENDM
                 
                 	.MACRO __MULBRRU
                 	MUL  R@0,R@1
                 	MOVW R30,R0
                 	.ENDM
                 
                 	.MACRO __MULBRR0
                 	MULS R@0,R@1
                 	.ENDM
                 
                 	.MACRO __MULBRRU0
                 	MUL  R@0,R@1
                 	.ENDM
                 
                 	.MACRO __MULBNWRU
                 	LDI  R26,@2
                 	MUL  R26,R@0
                 	MOVW R30,R0
                 	MUL  R26,R@1
                 	ADD  R31,R0
                 	.ENDM
                 
                 ;NAME DEFINITIONS FOR GLOBAL VARIABLES ALLOCATED TO REGISTERS
                 	.DEF _index=R5
                 	.DEF _flag_uart=R4
                 	.DEF _id=R7
                 	.DEF _trangthai=R6
                 	.DEF _gioon=R9
                 	.DEF _phuton=R8
                 	.DEF _giooff=R11
                 	.DEF _phutoff=R10
                 	.DEF _tx_wr_index0=R13
                 	.DEF _tx_rd_index0=R12
                 
                 	.CSEG
                 	.ORG 0x00
                 
                 ;START OF CODE MARKER
                 __START_OF_CODE:
                 
                 ;INTERRUPT VECTORS
000000 940c 1027 	JMP  __RESET
000002 940c 0000 	JMP  0x00
000004 940c 0000 	JMP  0x00
000006 940c 0000 	JMP  0x00
000008 940c 0000 	JMP  0x00
00000a 940c 0000 	JMP  0x00
00000c 940c 0000 	JMP  0x00
00000e 940c 0000 	JMP  0x00
000010 940c 0000 	JMP  0x00
000012 940c 0000 	JMP  0x00
000014 940c 0000 	JMP  0x00
000016 940c 0000 	JMP  0x00
000018 940c 0000 	JMP  0x00
00001a 940c 0000 	JMP  0x00
00001c 940c 1419 	JMP  _timer1_ovf_isr
00001e 940c 0000 	JMP  0x00
000020 940c 0000 	JMP  0x00
000022 940c 0000 	JMP  0x00
000024 940c 11f8 	JMP  _usart0_rx_isr
000026 940c 0000 	JMP  0x00
000028 940c 13cf 	JMP  _usart0_tx_isr
00002a 940c 0000 	JMP  0x00
00002c 940c 0000 	JMP  0x00
00002e 940c 0000 	JMP  0x00
000030 940c 0000 	JMP  0x00
000032 940c 0000 	JMP  0x00
000034 940c 0000 	JMP  0x00
000036 940c 0000 	JMP  0x00
000038 940c 0000 	JMP  0x00
00003a 940c 0000 	JMP  0x00
00003c 940c 0000 	JMP  0x00
00003e 940c 0000 	JMP  0x00
000040 940c 0000 	JMP  0x00
000042 940c 0000 	JMP  0x00
000044 940c 0000 	JMP  0x00
                 
                 _MainMenu:
000046 0000
000047 2000
000048 2020
000049 2020      	.DB  0x0,0x0,0x0,0x20,0x20,0x20,0x20,0x20
00004a 414d
00004b 4e49
00004c 4d20
00004d 4e45      	.DB  0x4D,0x41,0x49,0x4E,0x20,0x4D,0x45,0x4E
00004e 2055
00004f 2020
000050 2020
000051 2000      	.DB  0x55,0x20,0x20,0x20,0x20,0x20,0x0,0x20
000052 5320
000053 6e65
000054 6f73
000055 7372      	.DB  0x20,0x53,0x65,0x6E,0x73,0x6F,0x72,0x73
000056 2020
000057 2020
000058 2020
000059 2020      	.DB  0x20,0x20,0x20,0x20,0x20,0x20,0x20,0x20
00005a 2020
00005b ec00
00005c 0000
00005d 2000      	.DB  0x20,0x20,0x0,LOW(_SensorMenu*2),HIGH(_SensorMenu*2),0x0,0x0,0x20
00005e 4120
00005f 7463
000060 6175
000061 6f74      	.DB  0x20,0x41,0x63,0x74,0x75,0x61,0x74,0x6F
000062 2072
000063 2020
000064 2020
000065 2020      	.DB  0x72,0x20,0x20,0x20,0x20,0x20,0x20,0x20
000066 2020
000067 4c00
000068 0001
000069 2000      	.DB  0x20,0x20,0x0,LOW(_ActuatorMenu*2),HIGH(_ActuatorMenu*2),0x0,0x0,0x20
00006a 5320
00006b 7465
00006c 6974
00006d 676e      	.DB  0x20,0x53,0x65,0x74,0x74,0x69,0x6E,0x67
00006e 2020
00006f 2020
000070 2020
000071 2020      	.DB  0x20,0x20,0x20,0x20,0x20,0x20,0x20,0x20
000072 2020
000073 ac00
000074 0001
D:\DuAnLon\VuonThongMinh\atmega128\Debug\List\main.asm(1156): warning: .cseg .db misalignment - padding zero byte
000075 0000      	.DB  0x20,0x20,0x0,LOW(_SettingMenu*2),HIGH(_SettingMenu*2),0x0,0x0
                 _SensorMenu:
000076 8c00
000077 2000
000078 2020
000079 5320      	.DB  0x0,LOW(_MainMenu*2),HIGH(_MainMenu*2),0x20,0x20,0x20,0x20,0x53
00007a 4e45
00007b 4f53
00007c 2052
00007d 454d      	.DB  0x45,0x4E,0x53,0x4F,0x52,0x20,0x4D,0x45
00007e 554e
00007f 2020
000080 2020
000081 2000      	.DB  0x4E,0x55,0x20,0x20,0x20,0x20,0x0,0x20
000082 5420
000083 6d65
000084 2070
000085 2020      	.DB  0x20,0x54,0x65,0x6D,0x70,0x20,0x20,0x20
000086 2020
000087 2020
000088 2020
000089 2020      	.DB  0x20,0x20,0x20,0x20,0x20,0x20,0x20,0x20
00008a 2020
00008b 0c00
00008c 0002
00008d 2000      	.DB  0x20,0x20,0x0,LOW(_TempMenu*2),HIGH(_TempMenu*2),0x0,0x0,0x20
00008e 4820
00008f 6d75
000090 2069
000091 2020      	.DB  0x20,0x48,0x75,0x6D,0x69,0x20,0x20,0x20
000092 2020
000093 2020
000094 2020
000095 2020      	.DB  0x20,0x20,0x20,0x20,0x20,0x20,0x20,0x20
000096 2020
000097 6c00
000098 0002
000099 2000      	.DB  0x20,0x20,0x0,LOW(_HumiMenu*2),HIGH(_HumiMenu*2),0x0,0x0,0x20
00009a 4d20
00009b 726f
00009c 2065
00009d 2020      	.DB  0x20,0x4D,0x6F,0x72,0x65,0x20,0x20,0x20
00009e 2020
00009f 2020
0000a0 2020
0000a1 2020      	.DB  0x20,0x20,0x20,0x20,0x20,0x20,0x20,0x20
0000a2 2020
0000a3 cc00
0000a4 0002
D:\DuAnLon\VuonThongMinh\atmega128\Debug\List\main.asm(1169): warning: .cseg .db misalignment - padding zero byte
0000a5 0000      	.DB  0x20,0x20,0x0,LOW(_MoreSensorMenu*2),HIGH(_MoreSensorMenu*2),0x0,0x0
                 _ActuatorMenu:
0000a6 8c00
0000a7 2000
0000a8 2020
0000a9 4120      	.DB  0x0,LOW(_MainMenu*2),HIGH(_MainMenu*2),0x20,0x20,0x20,0x20,0x41
0000aa 5443
0000ab 4155
0000ac 4f54
0000ad 2052      	.DB  0x43,0x54,0x55,0x41,0x54,0x4F,0x52,0x20
0000ae 454d
0000af 554e
0000b0 2020
0000b1 2000      	.DB  0x4D,0x45,0x4E,0x55,0x20,0x20,0x0,0x20
0000b2 5420
0000b3 6968
0000b4 7465
0000b5 6220      	.DB  0x20,0x54,0x68,0x69,0x65,0x74,0x20,0x62
0000b6 2069
0000b7 2020
0000b8 2020
0000b9 2020      	.DB  0x69,0x20,0x20,0x20,0x20,0x20,0x20,0x20
0000ba 2020
0000bb ec00
0000bc 0003
0000bd 2000      	.DB  0x20,0x20,0x0,LOW(_ThietbiMenu*2),HIGH(_ThietbiMenu*2),0x0,0x0,0x20
0000be 5220
0000bf 6c65
0000c0 7961
0000c1 2073      	.DB  0x20,0x52,0x65,0x6C,0x61,0x79,0x73,0x20
0000c2 2020
0000c3 2020
0000c4 2020
0000c5 2020      	.DB  0x20,0x20,0x20,0x20,0x20,0x20,0x20,0x20
0000c6 2020
0000c7 cc00
0000c8 0008
0000c9 2000      	.DB  0x20,0x20,0x0,LOW(_RelayMenu*2),HIGH(_RelayMenu*2),0x0,0x0,0x20
0000ca 4e20
0000cb 6e6f
0000cc 2065
0000cd 2020      	.DB  0x20,0x4E,0x6F,0x6E,0x65,0x20,0x20,0x20
0000ce 2020
0000cf 2020
0000d0 2020
0000d1 2020      	.DB  0x20,0x20,0x20,0x20,0x20,0x20,0x20,0x20
0000d2 2020
0000d3 0000
0000d4 0000
D:\DuAnLon\VuonThongMinh\atmega128\Debug\List\main.asm(1182): warning: .cseg .db misalignment - padding zero byte
0000d5 0000      	.DB  0x20,0x20,0x0,0x0,0x0,0x0,0x0
                 _SettingMenu:
0000d6 8c00
0000d7 2000
0000d8 2020
0000d9 5320      	.DB  0x0,LOW(_MainMenu*2),HIGH(_MainMenu*2),0x20,0x20,0x20,0x20,0x53
0000da 5445
0000db 4954
0000dc 474e
0000dd 2053      	.DB  0x45,0x54,0x54,0x49,0x4E,0x47,0x53,0x20
0000de 2020
0000df 2020
0000e0 2020
0000e1 2000      	.DB  0x20,0x20,0x20,0x20,0x20,0x20,0x0,0x20
0000e2 4820
0000e3 6e65
0000e4 4720
0000e5 6f69      	.DB  0x20,0x48,0x65,0x6E,0x20,0x47,0x69,0x6F
0000e6 2020
0000e7 2020
0000e8 2020
0000e9 2020      	.DB  0x20,0x20,0x20,0x20,0x20,0x20,0x20,0x20
0000ea 2020
0000eb 4c00
0000ec 000d
0000ed 2000      	.DB  0x20,0x20,0x0,LOW(_SettingHengio*2),HIGH(_SettingHengio*2),0x0,0x0,0x20
0000ee 4120
0000ef 7475
0000f0 206f
0000f1 2020      	.DB  0x20,0x41,0x75,0x74,0x6F,0x20,0x20,0x20
0000f2 2020
0000f3 2020
0000f4 2020
0000f5 2020      	.DB  0x20,0x20,0x20,0x20,0x20,0x20,0x20,0x20
0000f6 2020
0000f7 4c00
0000f8 001c
0000f9 2000      	.DB  0x20,0x20,0x0,LOW(_Auto*2),HIGH(_Auto*2),0x0,0x0,0x20
0000fa 4420
0000fb 6e6f
0000fc 2067
0000fd 6f42      	.DB  0x20,0x44,0x6F,0x6E,0x67,0x20,0x42,0x6F
0000fe 2020
0000ff 2020
000100 2020
000101 2020      	.DB  0x20,0x20,0x20,0x20,0x20,0x20,0x20,0x20
000102 2020
000103 cc00
000104 001d
D:\DuAnLon\VuonThongMinh\atmega128\Debug\List\main.asm(1195): warning: .cseg .db misalignment - padding zero byte
000105 0000      	.DB  0x20,0x20,0x0,LOW(_DongBo*2),HIGH(_DongBo*2),0x0,0x0
                 _TempMenu:
000106 ec00
000107 2000
000108 2020
000109 5420      	.DB  0x0,LOW(_SensorMenu*2),HIGH(_SensorMenu*2),0x20,0x20,0x20,0x20,0x54
00010a 4d45
00010b 2050
00010c 2020
00010d 2020      	.DB  0x45,0x4D,0x50,0x20,0x20,0x20,0x20,0x20
00010e 2020
00010f 2020
000110 2020
000111 2000      	.DB  0x20,0x20,0x20,0x20,0x20,0x20,0x0,0x20
000112 4f20
000113 204e
000114 2020
000115 2020      	.DB  0x20,0x4F,0x4E,0x20,0x20,0x20,0x20,0x20
000116 2020
000117 2020
000118 2020
000119 2020      	.DB  0x20,0x20,0x20,0x20,0x20,0x20,0x20,0x20
00011a 2020
00011b 0000
00011c 5800
00011d 2010      	.DB  0x20,0x20,0x0,0x0,0x0,LOW(_ActuatorsActivation),HIGH(_ActuatorsActivation),0x20
00011e 4f20
00011f 4646
000120 2020
000121 2020      	.DB  0x20,0x4F,0x46,0x46,0x20,0x20,0x20,0x20
000122 2020
000123 2020
000124 2020
000125 2020      	.DB  0x20,0x20,0x20,0x20,0x20,0x20,0x20,0x20
000126 2020
000127 0000
000128 5800
000129 2010      	.DB  0x20,0x20,0x0,0x0,0x0,LOW(_ActuatorsActivation),HIGH(_ActuatorsActivation),0x20
00012a 4e20
00012b 6e6f
00012c 2065
00012d 2020      	.DB  0x20,0x4E,0x6F,0x6E,0x65,0x20,0x20,0x20
00012e 2020
00012f 2020
000130 2020
000131 2020      	.DB  0x20,0x20,0x20,0x20,0x20,0x20,0x20,0x20
000132 2020
000133 0000
000134 0000
D:\DuAnLon\VuonThongMinh\atmega128\Debug\List\main.asm(1208): warning: .cseg .db misalignment - padding zero byte
000135 0000      	.DB  0x20,0x20,0x0,0x0,0x0,0x0,0x0
                 _HumiMenu:
000136 ec01
000137 2000
000138 2020
000139 4820      	.DB  0x1,LOW(_SensorMenu*2),HIGH(_SensorMenu*2),0x20,0x20,0x20,0x20,0x48
00013a 4d55
00013b 2049
00013c 2020
00013d 2020      	.DB  0x55,0x4D,0x49,0x20,0x20,0x20,0x20,0x20
00013e 2020
00013f 2020
000140 2020
000141 2000      	.DB  0x20,0x20,0x20,0x20,0x20,0x20,0x0,0x20
000142 4f20
000143 204e
000144 2020
000145 2020      	.DB  0x20,0x4F,0x4E,0x20,0x20,0x20,0x20,0x20
000146 2020
000147 2020
000148 2020
000149 2020      	.DB  0x20,0x20,0x20,0x20,0x20,0x20,0x20,0x20
00014a 2020
00014b 0000
00014c 5800
00014d 2010      	.DB  0x20,0x20,0x0,0x0,0x0,LOW(_ActuatorsActivation),HIGH(_ActuatorsActivation),0x20
00014e 4f20
00014f 4646
000150 2020
000151 2020      	.DB  0x20,0x4F,0x46,0x46,0x20,0x20,0x20,0x20
000152 2020
000153 2020
000154 2020
000155 2020      	.DB  0x20,0x20,0x20,0x20,0x20,0x20,0x20,0x20
000156 2020
000157 0000
000158 5800
000159 2010      	.DB  0x20,0x20,0x0,0x0,0x0,LOW(_ActuatorsActivation),HIGH(_ActuatorsActivation),0x20
00015a 4e20
00015b 6e6f
00015c 2065
00015d 2020      	.DB  0x20,0x4E,0x6F,0x6E,0x65,0x20,0x20,0x20
00015e 2020
00015f 2020
000160 2020
000161 2020      	.DB  0x20,0x20,0x20,0x20,0x20,0x20,0x20,0x20
000162 2020
000163 0000
000164 0000
D:\DuAnLon\VuonThongMinh\atmega128\Debug\List\main.asm(1221): warning: .cseg .db misalignment - padding zero byte
000165 0000      	.DB  0x20,0x20,0x0,0x0,0x0,0x0,0x0
                 _MoreSensorMenu:
000166 ec00
000167 2000
000168 2020
000169 5320      	.DB  0x0,LOW(_SensorMenu*2),HIGH(_SensorMenu*2),0x20,0x20,0x20,0x20,0x53
00016a 4e45
00016b 4f53
00016c 2052
00016d 454d      	.DB  0x45,0x4E,0x53,0x4F,0x52,0x20,0x4D,0x45
00016e 554e
00016f 2020
000170 2020
000171 2000      	.DB  0x4E,0x55,0x20,0x20,0x20,0x20,0x0,0x20
000172 4420
000173 206f
000174 6d61
000175 6420      	.DB  0x20,0x44,0x6F,0x20,0x61,0x6D,0x20,0x64
000176 7461
000177 2020
000178 2020
000179 2020      	.DB  0x61,0x74,0x20,0x20,0x20,0x20,0x20,0x20
00017a 2020
00017b 2c00
00017c 0003
00017d 2000      	.DB  0x20,0x20,0x0,LOW(_DoAmDatMenu*2),HIGH(_DoAmDatMenu*2),0x0,0x0,0x20
00017e 4320
00017f 6d61
000180 4220
000181 6569      	.DB  0x20,0x43,0x61,0x6D,0x20,0x42,0x69,0x65
000182 206e
000183 754d
000184 2061
000185 2020      	.DB  0x6E,0x20,0x4D,0x75,0x61,0x20,0x20,0x20
000186 2020
000187 8c00
000188 0003
000189 2000      	.DB  0x20,0x20,0x0,LOW(_CamBienMuaMenu*2),HIGH(_CamBienMuaMenu*2),0x0,0x0,0x20
00018a 4e20
00018b 6e6f
00018c 2065
00018d 2020      	.DB  0x20,0x4E,0x6F,0x6E,0x65,0x20,0x20,0x20
00018e 2020
00018f 2020
000190 2020
000191 2020      	.DB  0x20,0x20,0x20,0x20,0x20,0x20,0x20,0x20
000192 2020
000193 0000
000194 0000
D:\DuAnLon\VuonThongMinh\atmega128\Debug\List\main.asm(1234): warning: .cseg .db misalignment - padding zero byte
000195 0000      	.DB  0x20,0x20,0x0,0x0,0x0,0x0,0x0
                 _DoAmDatMenu:
000196 cc02
000197 2002
000198 2020
000199 4420      	.DB  0x2,LOW(_MoreSensorMenu*2),HIGH(_MoreSensorMenu*2),0x20,0x20,0x20,0x20,0x44
00019a 206f
00019b 6d61
00019c 6420
00019d 7461      	.DB  0x6F,0x20,0x61,0x6D,0x20,0x64,0x61,0x74
00019e 2020
00019f 2020
0001a0 2020
0001a1 2000      	.DB  0x20,0x20,0x20,0x20,0x20,0x20,0x0,0x20
0001a2 4f20
0001a3 204e
0001a4 2020
0001a5 2020      	.DB  0x20,0x4F,0x4E,0x20,0x20,0x20,0x20,0x20
0001a6 2020
0001a7 2020
0001a8 2020
0001a9 2020      	.DB  0x20,0x20,0x20,0x20,0x20,0x20,0x20,0x20
0001aa 2020
0001ab 0000
0001ac 5800
0001ad 2010      	.DB  0x20,0x20,0x0,0x0,0x0,LOW(_ActuatorsActivation),HIGH(_ActuatorsActivation),0x20
0001ae 4f20
0001af 4646
0001b0 2020
0001b1 2020      	.DB  0x20,0x4F,0x46,0x46,0x20,0x20,0x20,0x20
0001b2 2020
0001b3 2020
0001b4 2020
0001b5 2020      	.DB  0x20,0x20,0x20,0x20,0x20,0x20,0x20,0x20
0001b6 2020
0001b7 0000
0001b8 5800
0001b9 2010      	.DB  0x20,0x20,0x0,0x0,0x0,LOW(_ActuatorsActivation),HIGH(_ActuatorsActivation),0x20
0001ba 4e20
0001bb 6e6f
0001bc 2065
0001bd 2020      	.DB  0x20,0x4E,0x6F,0x6E,0x65,0x20,0x20,0x20
0001be 2020
0001bf 2020
0001c0 2020
0001c1 2020      	.DB  0x20,0x20,0x20,0x20,0x20,0x20,0x20,0x20
0001c2 2020
0001c3 0000
0001c4 0000
D:\DuAnLon\VuonThongMinh\atmega128\Debug\List\main.asm(1247): warning: .cseg .db misalignment - padding zero byte
0001c5 0000      	.DB  0x20,0x20,0x0,0x0,0x0,0x0,0x0
                 _CamBienMuaMenu:
0001c6 cc03
0001c7 2002
0001c8 2020
0001c9 6143      	.DB  0x3,LOW(_MoreSensorMenu*2),HIGH(_MoreSensorMenu*2),0x20,0x20,0x20,0x43,0x61
0001ca 206d
0001cb 6942
0001cc 6e65
0001cd 4d20      	.DB  0x6D,0x20,0x42,0x69,0x65,0x6E,0x20,0x4D
0001ce 6175
0001cf 2020
0001d0 2020
0001d1 2000      	.DB  0x75,0x61,0x20,0x20,0x20,0x20,0x0,0x20
0001d2 4f20
0001d3 204e
0001d4 2020
0001d5 2020      	.DB  0x20,0x4F,0x4E,0x20,0x20,0x20,0x20,0x20
0001d6 2020
0001d7 2020
0001d8 2020
0001d9 2020      	.DB  0x20,0x20,0x20,0x20,0x20,0x20,0x20,0x20
0001da 2020
0001db 0000
0001dc 5800
0001dd 2010      	.DB  0x20,0x20,0x0,0x0,0x0,LOW(_ActuatorsActivation),HIGH(_ActuatorsActivation),0x20
0001de 4f20
0001df 4646
0001e0 2020
0001e1 2020      	.DB  0x20,0x4F,0x46,0x46,0x20,0x20,0x20,0x20
0001e2 2020
0001e3 2020
0001e4 2020
0001e5 2020      	.DB  0x20,0x20,0x20,0x20,0x20,0x20,0x20,0x20
0001e6 2020
0001e7 0000
0001e8 5800
0001e9 2010      	.DB  0x20,0x20,0x0,0x0,0x0,LOW(_ActuatorsActivation),HIGH(_ActuatorsActivation),0x20
0001ea 4e20
0001eb 6e6f
0001ec 2065
0001ed 2020      	.DB  0x20,0x4E,0x6F,0x6E,0x65,0x20,0x20,0x20
0001ee 2020
0001ef 2020
0001f0 2020
0001f1 2020      	.DB  0x20,0x20,0x20,0x20,0x20,0x20,0x20,0x20
0001f2 2020
0001f3 0000
0001f4 0000
D:\DuAnLon\VuonThongMinh\atmega128\Debug\List\main.asm(1260): warning: .cseg .db misalignment - padding zero byte
0001f5 0000      	.DB  0x20,0x20,0x0,0x0,0x0,0x0,0x0
                 _ThietbiMenu:
0001f6 4c00
0001f7 2001
0001f8 2020
0001f9 5420      	.DB  0x0,LOW(_ActuatorMenu*2),HIGH(_ActuatorMenu*2),0x20,0x20,0x20,0x20,0x54
0001fa 6968
0001fb 7465
0001fc 6220
0001fd 2069      	.DB  0x68,0x69,0x65,0x74,0x20,0x62,0x69,0x20
0001fe 2020
0001ff 2020
000200 2020
000201 2000      	.DB  0x20,0x20,0x20,0x20,0x20,0x20,0x0,0x20
000202 4420
000203 6e65
000204 2020
000205 2020      	.DB  0x20,0x44,0x65,0x6E,0x20,0x20,0x20,0x20
000206 2020
000207 2020
000208 2020
000209 2020      	.DB  0x20,0x20,0x20,0x20,0x20,0x20,0x20,0x20
00020a 2020
00020b 4c00
00020c 0004
00020d 2000      	.DB  0x20,0x20,0x0,LOW(_DenMenu*2),HIGH(_DenMenu*2),0x0,0x0,0x20
00020e 5120
00020f 6175
000210 2074
000211 2020      	.DB  0x20,0x51,0x75,0x61,0x74,0x20,0x20,0x20
000212 2020
000213 2020
000214 2020
000215 2020      	.DB  0x20,0x20,0x20,0x20,0x20,0x20,0x20,0x20
000216 2020
000217 cc00
000218 0005
000219 2000      	.DB  0x20,0x20,0x0,LOW(_QuatMenu*2),HIGH(_QuatMenu*2),0x0,0x0,0x20
00021a 4220
00021b 6d6f
00021c 2020
00021d 2020      	.DB  0x20,0x42,0x6F,0x6D,0x20,0x20,0x20,0x20
00021e 2020
00021f 2020
000220 2020
000221 2020      	.DB  0x20,0x20,0x20,0x20,0x20,0x20,0x20,0x20
000222 2020
000223 4c00
000224 0007
D:\DuAnLon\VuonThongMinh\atmega128\Debug\List\main.asm(1273): warning: .cseg .db misalignment - padding zero byte
000225 0000      	.DB  0x20,0x20,0x0,LOW(_BomMenu*2),HIGH(_BomMenu*2),0x0,0x0
                 _DenMenu:
000226 ec00
000227 2003
000228 2020
000229 4420      	.DB  0x0,LOW(_ThietbiMenu*2),HIGH(_ThietbiMenu*2),0x20,0x20,0x20,0x20,0x44
00022a 6e65
00022b 2020
00022c 2020
00022d 2020      	.DB  0x65,0x6E,0x20,0x20,0x20,0x20,0x20,0x20
00022e 2020
00022f 2020
000230 2020
000231 2000      	.DB  0x20,0x20,0x20,0x20,0x20,0x20,0x0,0x20
000232 4b20
000233 7568
000234 3120
000235 2020      	.DB  0x20,0x4B,0x68,0x75,0x20,0x31,0x20,0x20
000236 2020
000237 2020
000238 2020
000239 2020      	.DB  0x20,0x20,0x20,0x20,0x20,0x20,0x20,0x20
00023a 2020
00023b ac00
00023c 0004
00023d 2000      	.DB  0x20,0x20,0x0,LOW(_DenKhu1Menu*2),HIGH(_DenKhu1Menu*2),0x0,0x0,0x20
00023e 4b20
00023f 7568
000240 3220
000241 2020      	.DB  0x20,0x4B,0x68,0x75,0x20,0x32,0x20,0x20
000242 2020
000243 2020
000244 2020
000245 2020      	.DB  0x20,0x20,0x20,0x20,0x20,0x20,0x20,0x20
000246 2020
000247 0c00
000248 0005
000249 2000      	.DB  0x20,0x20,0x0,LOW(_DenKhu2Menu*2),HIGH(_DenKhu2Menu*2),0x0,0x0,0x20
00024a 4b20
00024b 7568
00024c 3320
00024d 2020      	.DB  0x20,0x4B,0x68,0x75,0x20,0x33,0x20,0x20
00024e 2020
00024f 2020
000250 2020
000251 2020      	.DB  0x20,0x20,0x20,0x20,0x20,0x20,0x20,0x20
000252 2020
000253 6c00
000254 0005
D:\DuAnLon\VuonThongMinh\atmega128\Debug\List\main.asm(1286): warning: .cseg .db misalignment - padding zero byte
000255 0000      	.DB  0x20,0x20,0x0,LOW(_DenKhu3Menu*2),HIGH(_DenKhu3Menu*2),0x0,0x0
                 _DenKhu1Menu:
000256 4c04
000257 2004
000258 2020
000259 4420      	.DB  0x4,LOW(_DenMenu*2),HIGH(_DenMenu*2),0x20,0x20,0x20,0x20,0x44
00025a 6e65
00025b 4b20
00025c 7568
00025d 3120      	.DB  0x65,0x6E,0x20,0x4B,0x68,0x75,0x20,0x31
00025e 2020
00025f 2020
000260 2020
000261 2000      	.DB  0x20,0x20,0x20,0x20,0x20,0x20,0x0,0x20
000262 4f20
000263 204e
000264 2020
000265 2020      	.DB  0x20,0x4F,0x4E,0x20,0x20,0x20,0x20,0x20
000266 2020
000267 2020
000268 2020
000269 2020      	.DB  0x20,0x20,0x20,0x20,0x20,0x20,0x20,0x20
00026a 2020
00026b 0000
00026c 5800
00026d 2010      	.DB  0x20,0x20,0x0,0x0,0x0,LOW(_ActuatorsActivation),HIGH(_ActuatorsActivation),0x20
00026e 4f20
00026f 4646
000270 2020
000271 2020      	.DB  0x20,0x4F,0x46,0x46,0x20,0x20,0x20,0x20
000272 2020
000273 2020
000274 2020
000275 2020      	.DB  0x20,0x20,0x20,0x20,0x20,0x20,0x20,0x20
000276 2020
000277 0000
000278 5800
000279 2010      	.DB  0x20,0x20,0x0,0x0,0x0,LOW(_ActuatorsActivation),HIGH(_ActuatorsActivation),0x20
00027a 4e20
00027b 6e6f
00027c 2065
00027d 2020      	.DB  0x20,0x4E,0x6F,0x6E,0x65,0x20,0x20,0x20
00027e 2020
00027f 2020
000280 2020
000281 2020      	.DB  0x20,0x20,0x20,0x20,0x20,0x20,0x20,0x20
000282 2020
000283 0000
000284 0000
D:\DuAnLon\VuonThongMinh\atmega128\Debug\List\main.asm(1299): warning: .cseg .db misalignment - padding zero byte
000285 0000      	.DB  0x20,0x20,0x0,0x0,0x0,0x0,0x0
                 _DenKhu2Menu:
000286 4c05
000287 2004
000288 2020
000289 4420      	.DB  0x5,LOW(_DenMenu*2),HIGH(_DenMenu*2),0x20,0x20,0x20,0x20,0x44
00028a 6e65
00028b 4b20
00028c 7568
00028d 3220      	.DB  0x65,0x6E,0x20,0x4B,0x68,0x75,0x20,0x32
00028e 2020
00028f 2020
000290 2020
000291 2000      	.DB  0x20,0x20,0x20,0x20,0x20,0x20,0x0,0x20
000292 4f20
000293 204e
000294 2020
000295 2020      	.DB  0x20,0x4F,0x4E,0x20,0x20,0x20,0x20,0x20
000296 2020
000297 2020
000298 2020
000299 2020      	.DB  0x20,0x20,0x20,0x20,0x20,0x20,0x20,0x20
00029a 2020
00029b 0000
00029c 5800
00029d 2010      	.DB  0x20,0x20,0x0,0x0,0x0,LOW(_ActuatorsActivation),HIGH(_ActuatorsActivation),0x20
00029e 4f20
00029f 4646
0002a0 2020
0002a1 2020      	.DB  0x20,0x4F,0x46,0x46,0x20,0x20,0x20,0x20
0002a2 2020
0002a3 2020
0002a4 2020
0002a5 2020      	.DB  0x20,0x20,0x20,0x20,0x20,0x20,0x20,0x20
0002a6 2020
0002a7 0000
0002a8 5800
0002a9 2010      	.DB  0x20,0x20,0x0,0x0,0x0,LOW(_ActuatorsActivation),HIGH(_ActuatorsActivation),0x20
0002aa 4e20
0002ab 6e6f
0002ac 2065
0002ad 2020      	.DB  0x20,0x4E,0x6F,0x6E,0x65,0x20,0x20,0x20
0002ae 2020
0002af 2020
0002b0 2020
0002b1 2020      	.DB  0x20,0x20,0x20,0x20,0x20,0x20,0x20,0x20
0002b2 2020
0002b3 0000
0002b4 0000
D:\DuAnLon\VuonThongMinh\atmega128\Debug\List\main.asm(1312): warning: .cseg .db misalignment - padding zero byte
0002b5 0000      	.DB  0x20,0x20,0x0,0x0,0x0,0x0,0x0
                 _DenKhu3Menu:
0002b6 4c06
0002b7 2004
0002b8 2020
0002b9 4420      	.DB  0x6,LOW(_DenMenu*2),HIGH(_DenMenu*2),0x20,0x20,0x20,0x20,0x44
0002ba 6e65
0002bb 4b20
0002bc 7568
0002bd 3320      	.DB  0x65,0x6E,0x20,0x4B,0x68,0x75,0x20,0x33
0002be 2020
0002bf 2020
0002c0 2020
0002c1 2000      	.DB  0x20,0x20,0x20,0x20,0x20,0x20,0x0,0x20
0002c2 4f20
0002c3 204e
0002c4 2020
0002c5 2020      	.DB  0x20,0x4F,0x4E,0x20,0x20,0x20,0x20,0x20
0002c6 2020
0002c7 2020
0002c8 2020
0002c9 2020      	.DB  0x20,0x20,0x20,0x20,0x20,0x20,0x20,0x20
0002ca 2020
0002cb 0000
0002cc 5800
0002cd 2010      	.DB  0x20,0x20,0x0,0x0,0x0,LOW(_ActuatorsActivation),HIGH(_ActuatorsActivation),0x20
0002ce 4f20
0002cf 4646
0002d0 2020
0002d1 2020      	.DB  0x20,0x4F,0x46,0x46,0x20,0x20,0x20,0x20
0002d2 2020
0002d3 2020
0002d4 2020
0002d5 2020      	.DB  0x20,0x20,0x20,0x20,0x20,0x20,0x20,0x20
0002d6 2020
0002d7 0000
0002d8 5800
0002d9 2010      	.DB  0x20,0x20,0x0,0x0,0x0,LOW(_ActuatorsActivation),HIGH(_ActuatorsActivation),0x20
0002da 4e20
0002db 6e6f
0002dc 2065
0002dd 2020      	.DB  0x20,0x4E,0x6F,0x6E,0x65,0x20,0x20,0x20
0002de 2020
0002df 2020
0002e0 2020
0002e1 2020      	.DB  0x20,0x20,0x20,0x20,0x20,0x20,0x20,0x20
0002e2 2020
0002e3 0000
0002e4 0000
D:\DuAnLon\VuonThongMinh\atmega128\Debug\List\main.asm(1325): warning: .cseg .db misalignment - padding zero byte
0002e5 0000      	.DB  0x20,0x20,0x0,0x0,0x0,0x0,0x0
                 _QuatMenu:
0002e6 ec00
0002e7 2003
0002e8 2020
0002e9 5120      	.DB  0x0,LOW(_ThietbiMenu*2),HIGH(_ThietbiMenu*2),0x20,0x20,0x20,0x20,0x51
0002ea 6175
0002eb 2074
0002ec 2020
0002ed 2020      	.DB  0x75,0x61,0x74,0x20,0x20,0x20,0x20,0x20
0002ee 2020
0002ef 2020
0002f0 2020
0002f1 2000      	.DB  0x20,0x20,0x20,0x20,0x20,0x20,0x0,0x20
0002f2 4b20
0002f3 7568
0002f4 2031
0002f5 2020      	.DB  0x20,0x4B,0x68,0x75,0x31,0x20,0x20,0x20
0002f6 2020
0002f7 2020
0002f8 2020
0002f9 2020      	.DB  0x20,0x20,0x20,0x20,0x20,0x20,0x20,0x20
0002fa 2020
0002fb 2c00
0002fc 0006
0002fd 2000      	.DB  0x20,0x20,0x0,LOW(_QuatKhu1Menu*2),HIGH(_QuatKhu1Menu*2),0x0,0x0,0x20
0002fe 4b20
0002ff 7568
000300 2032
000301 2020      	.DB  0x20,0x4B,0x68,0x75,0x32,0x20,0x20,0x20
000302 2020
000303 2020
000304 2020
000305 2020      	.DB  0x20,0x20,0x20,0x20,0x20,0x20,0x20,0x20
000306 2020
000307 8c00
000308 0006
000309 2000      	.DB  0x20,0x20,0x0,LOW(_QuatKhu2Menu*2),HIGH(_QuatKhu2Menu*2),0x0,0x0,0x20
00030a 4b20
00030b 7568
00030c 2033
00030d 2020      	.DB  0x20,0x4B,0x68,0x75,0x33,0x20,0x20,0x20
00030e 2020
00030f 2020
000310 2020
000311 2020      	.DB  0x20,0x20,0x20,0x20,0x20,0x20,0x20,0x20
000312 2020
000313 ec00
000314 0006
D:\DuAnLon\VuonThongMinh\atmega128\Debug\List\main.asm(1338): warning: .cseg .db misalignment - padding zero byte
000315 0000      	.DB  0x20,0x20,0x0,LOW(_QuatKhu3Menu*2),HIGH(_QuatKhu3Menu*2),0x0,0x0
                 _QuatKhu1Menu:
000316 cc07
000317 2005
000318 2020
000319 5120      	.DB  0x7,LOW(_QuatMenu*2),HIGH(_QuatMenu*2),0x20,0x20,0x20,0x20,0x51
00031a 6175
00031b 2074
00031c 684b
00031d 2075      	.DB  0x75,0x61,0x74,0x20,0x4B,0x68,0x75,0x20
00031e 2031
00031f 2020
000320 2020
000321 2000      	.DB  0x31,0x20,0x20,0x20,0x20,0x20,0x0,0x20
000322 4f20
000323 204e
000324 2020
000325 2020      	.DB  0x20,0x4F,0x4E,0x20,0x20,0x20,0x20,0x20
000326 2020
000327 2020
000328 2020
000329 2020      	.DB  0x20,0x20,0x20,0x20,0x20,0x20,0x20,0x20
00032a 2020
00032b 0000
00032c 5800
00032d 2010      	.DB  0x20,0x20,0x0,0x0,0x0,LOW(_ActuatorsActivation),HIGH(_ActuatorsActivation),0x20
00032e 4f20
00032f 4646
000330 2020
000331 2020      	.DB  0x20,0x4F,0x46,0x46,0x20,0x20,0x20,0x20
000332 2020
000333 2020
000334 2020
000335 2020      	.DB  0x20,0x20,0x20,0x20,0x20,0x20,0x20,0x20
000336 2020
000337 0000
000338 5800
000339 2010      	.DB  0x20,0x20,0x0,0x0,0x0,LOW(_ActuatorsActivation),HIGH(_ActuatorsActivation),0x20
00033a 4e20
00033b 6e6f
00033c 2065
00033d 2020      	.DB  0x20,0x4E,0x6F,0x6E,0x65,0x20,0x20,0x20
00033e 2020
00033f 2020
000340 2020
000341 2020      	.DB  0x20,0x20,0x20,0x20,0x20,0x20,0x20,0x20
000342 2020
000343 0000
000344 0000
D:\DuAnLon\VuonThongMinh\atmega128\Debug\List\main.asm(1351): warning: .cseg .db misalignment - padding zero byte
000345 0000      	.DB  0x20,0x20,0x0,0x0,0x0,0x0,0x0
                 _QuatKhu2Menu:
000346 cc08
000347 2005
000348 2020
000349 5120      	.DB  0x8,LOW(_QuatMenu*2),HIGH(_QuatMenu*2),0x20,0x20,0x20,0x20,0x51
00034a 6175
00034b 2074
00034c 684b
00034d 2075      	.DB  0x75,0x61,0x74,0x20,0x4B,0x68,0x75,0x20
00034e 2032
00034f 2020
000350 2020
000351 2000      	.DB  0x32,0x20,0x20,0x20,0x20,0x20,0x0,0x20
000352 4f20
000353 204e
000354 2020
000355 2020      	.DB  0x20,0x4F,0x4E,0x20,0x20,0x20,0x20,0x20
000356 2020
000357 2020
000358 2020
000359 2020      	.DB  0x20,0x20,0x20,0x20,0x20,0x20,0x20,0x20
00035a 2020
00035b 0000
00035c 5800
00035d 2010      	.DB  0x20,0x20,0x0,0x0,0x0,LOW(_ActuatorsActivation),HIGH(_ActuatorsActivation),0x20
00035e 4f20
00035f 4646
000360 2020
000361 2020      	.DB  0x20,0x4F,0x46,0x46,0x20,0x20,0x20,0x20
000362 2020
000363 2020
000364 2020
000365 2020      	.DB  0x20,0x20,0x20,0x20,0x20,0x20,0x20,0x20
000366 2020
000367 0000
000368 5800
000369 2010      	.DB  0x20,0x20,0x0,0x0,0x0,LOW(_ActuatorsActivation),HIGH(_ActuatorsActivation),0x20
00036a 4e20
00036b 6e6f
00036c 2065
00036d 2020      	.DB  0x20,0x4E,0x6F,0x6E,0x65,0x20,0x20,0x20
00036e 2020
00036f 2020
000370 2020
000371 2020      	.DB  0x20,0x20,0x20,0x20,0x20,0x20,0x20,0x20
000372 2020
000373 0000
000374 0000
D:\DuAnLon\VuonThongMinh\atmega128\Debug\List\main.asm(1364): warning: .cseg .db misalignment - padding zero byte
000375 0000      	.DB  0x20,0x20,0x0,0x0,0x0,0x0,0x0
                 _QuatKhu3Menu:
000376 cc09
000377 2005
000378 2020
000379 5120      	.DB  0x9,LOW(_QuatMenu*2),HIGH(_QuatMenu*2),0x20,0x20,0x20,0x20,0x51
00037a 6175
00037b 2074
00037c 684b
00037d 2075      	.DB  0x75,0x61,0x74,0x20,0x4B,0x68,0x75,0x20
00037e 2033
00037f 2020
000380 2020
000381 2000      	.DB  0x33,0x20,0x20,0x20,0x20,0x20,0x0,0x20
000382 4f20
000383 204e
000384 2020
000385 2020      	.DB  0x20,0x4F,0x4E,0x20,0x20,0x20,0x20,0x20
000386 2020
000387 2020
000388 2020
000389 2020      	.DB  0x20,0x20,0x20,0x20,0x20,0x20,0x20,0x20
00038a 2020
00038b 0000
00038c 5800
00038d 2010      	.DB  0x20,0x20,0x0,0x0,0x0,LOW(_ActuatorsActivation),HIGH(_ActuatorsActivation),0x20
00038e 4f20
00038f 4646
000390 2020
000391 2020      	.DB  0x20,0x4F,0x46,0x46,0x20,0x20,0x20,0x20
000392 2020
000393 2020
000394 2020
000395 2020      	.DB  0x20,0x20,0x20,0x20,0x20,0x20,0x20,0x20
000396 2020
000397 0000
000398 5800
000399 2010      	.DB  0x20,0x20,0x0,0x0,0x0,LOW(_ActuatorsActivation),HIGH(_ActuatorsActivation),0x20
00039a 4e20
00039b 6e6f
00039c 2065
00039d 2020      	.DB  0x20,0x4E,0x6F,0x6E,0x65,0x20,0x20,0x20
00039e 2020
00039f 2020
0003a0 2020
0003a1 2020      	.DB  0x20,0x20,0x20,0x20,0x20,0x20,0x20,0x20
0003a2 2020
0003a3 0000
0003a4 0000
D:\DuAnLon\VuonThongMinh\atmega128\Debug\List\main.asm(1377): warning: .cseg .db misalignment - padding zero byte
0003a5 0000      	.DB  0x20,0x20,0x0,0x0,0x0,0x0,0x0
                 _BomMenu:
0003a6 ec00
0003a7 2003
0003a8 2020
0003a9 4220      	.DB  0x0,LOW(_ThietbiMenu*2),HIGH(_ThietbiMenu*2),0x20,0x20,0x20,0x20,0x42
0003aa 6d6f
0003ab 2020
0003ac 2020
0003ad 2020      	.DB  0x6F,0x6D,0x20,0x20,0x20,0x20,0x20,0x20
0003ae 2020
0003af 2020
0003b0 2020
0003b1 2000      	.DB  0x20,0x20,0x20,0x20,0x20,0x20,0x0,0x20
0003b2 4b20
0003b3 7568
0003b4 3120
0003b5 2020      	.DB  0x20,0x4B,0x68,0x75,0x20,0x31,0x20,0x20
0003b6 2020
0003b7 2020
0003b8 2020
0003b9 2020      	.DB  0x20,0x20,0x20,0x20,0x20,0x20,0x20,0x20
0003ba 2020
0003bb ac00
0003bc 0007
0003bd 2000      	.DB  0x20,0x20,0x0,LOW(_BomKhu1Menu*2),HIGH(_BomKhu1Menu*2),0x0,0x0,0x20
0003be 4b20
0003bf 7568
0003c0 3220
0003c1 2020      	.DB  0x20,0x4B,0x68,0x75,0x20,0x32,0x20,0x20
0003c2 2020
0003c3 2020
0003c4 2020
0003c5 2020      	.DB  0x20,0x20,0x20,0x20,0x20,0x20,0x20,0x20
0003c6 2020
0003c7 0c00
0003c8 0008
0003c9 2000      	.DB  0x20,0x20,0x0,LOW(_BomKhu2Menu*2),HIGH(_BomKhu2Menu*2),0x0,0x0,0x20
0003ca 4b20
0003cb 7568
0003cc 3320
0003cd 2020      	.DB  0x20,0x4B,0x68,0x75,0x20,0x33,0x20,0x20
0003ce 2020
0003cf 2020
0003d0 2020
0003d1 2020      	.DB  0x20,0x20,0x20,0x20,0x20,0x20,0x20,0x20
0003d2 2020
0003d3 6c00
0003d4 0008
D:\DuAnLon\VuonThongMinh\atmega128\Debug\List\main.asm(1390): warning: .cseg .db misalignment - padding zero byte
0003d5 0000      	.DB  0x20,0x20,0x0,LOW(_BomKhu3Menu*2),HIGH(_BomKhu3Menu*2),0x0,0x0
                 _BomKhu1Menu:
0003d6 4c0a
0003d7 2007
0003d8 2020
0003d9 4220      	.DB  0xA,LOW(_BomMenu*2),HIGH(_BomMenu*2),0x20,0x20,0x20,0x20,0x42
0003da 6d6f
0003db 4b20
0003dc 7568
0003dd 3120      	.DB  0x6F,0x6D,0x20,0x4B,0x68,0x75,0x20,0x31
0003de 2020
0003df 2020
0003e0 2020
0003e1 2000      	.DB  0x20,0x20,0x20,0x20,0x20,0x20,0x0,0x20
0003e2 4f20
0003e3 204e
0003e4 2020
0003e5 2020      	.DB  0x20,0x4F,0x4E,0x20,0x20,0x20,0x20,0x20
0003e6 2020
0003e7 2020
0003e8 2020
0003e9 2020      	.DB  0x20,0x20,0x20,0x20,0x20,0x20,0x20,0x20
0003ea 2020
0003eb 0000
0003ec 5800
0003ed 2010      	.DB  0x20,0x20,0x0,0x0,0x0,LOW(_ActuatorsActivation),HIGH(_ActuatorsActivation),0x20
0003ee 4f20
0003ef 4646
0003f0 2020
0003f1 2020      	.DB  0x20,0x4F,0x46,0x46,0x20,0x20,0x20,0x20
0003f2 2020
0003f3 2020
0003f4 2020
0003f5 2020      	.DB  0x20,0x20,0x20,0x20,0x20,0x20,0x20,0x20
0003f6 2020
0003f7 0000
0003f8 5800
0003f9 2010      	.DB  0x20,0x20,0x0,0x0,0x0,LOW(_ActuatorsActivation),HIGH(_ActuatorsActivation),0x20
0003fa 4e20
0003fb 6e6f
0003fc 2065
0003fd 2020      	.DB  0x20,0x4E,0x6F,0x6E,0x65,0x20,0x20,0x20
0003fe 2020
0003ff 2020
000400 2020
000401 2020      	.DB  0x20,0x20,0x20,0x20,0x20,0x20,0x20,0x20
000402 2020
000403 0000
000404 0000
D:\DuAnLon\VuonThongMinh\atmega128\Debug\List\main.asm(1403): warning: .cseg .db misalignment - padding zero byte
000405 0000      	.DB  0x20,0x20,0x0,0x0,0x0,0x0,0x0
                 _BomKhu2Menu:
000406 4c0b
000407 2007
000408 2020
000409 4220      	.DB  0xB,LOW(_BomMenu*2),HIGH(_BomMenu*2),0x20,0x20,0x20,0x20,0x42
00040a 6d6f
00040b 4b20
00040c 7568
00040d 3220      	.DB  0x6F,0x6D,0x20,0x4B,0x68,0x75,0x20,0x32
00040e 2020
00040f 2020
000410 2020
000411 2000      	.DB  0x20,0x20,0x20,0x20,0x20,0x20,0x0,0x20
000412 4f20
000413 204e
000414 2020
000415 2020      	.DB  0x20,0x4F,0x4E,0x20,0x20,0x20,0x20,0x20
000416 2020
000417 2020
000418 2020
000419 2020      	.DB  0x20,0x20,0x20,0x20,0x20,0x20,0x20,0x20
00041a 2020
00041b 0000
00041c 5800
00041d 2010      	.DB  0x20,0x20,0x0,0x0,0x0,LOW(_ActuatorsActivation),HIGH(_ActuatorsActivation),0x20
00041e 4f20
00041f 4646
000420 2020
000421 2020      	.DB  0x20,0x4F,0x46,0x46,0x20,0x20,0x20,0x20
000422 2020
000423 2020
000424 2020
000425 2020      	.DB  0x20,0x20,0x20,0x20,0x20,0x20,0x20,0x20
000426 2020
000427 0000
000428 5800
000429 2010      	.DB  0x20,0x20,0x0,0x0,0x0,LOW(_ActuatorsActivation),HIGH(_ActuatorsActivation),0x20
00042a 4e20
00042b 6e6f
00042c 2065
00042d 2020      	.DB  0x20,0x4E,0x6F,0x6E,0x65,0x20,0x20,0x20
00042e 2020
00042f 2020
000430 2020
000431 2020      	.DB  0x20,0x20,0x20,0x20,0x20,0x20,0x20,0x20
000432 2020
000433 0000
000434 0000
D:\DuAnLon\VuonThongMinh\atmega128\Debug\List\main.asm(1416): warning: .cseg .db misalignment - padding zero byte
000435 0000      	.DB  0x20,0x20,0x0,0x0,0x0,0x0,0x0
                 _BomKhu3Menu:
000436 4c0c
000437 2007
000438 2020
000439 4220      	.DB  0xC,LOW(_BomMenu*2),HIGH(_BomMenu*2),0x20,0x20,0x20,0x20,0x42
00043a 6d6f
00043b 4b20
00043c 7568
00043d 3320      	.DB  0x6F,0x6D,0x20,0x4B,0x68,0x75,0x20,0x33
00043e 2020
00043f 2020
000440 2020
000441 2000      	.DB  0x20,0x20,0x20,0x20,0x20,0x20,0x0,0x20
000442 4f20
000443 204e
000444 2020
000445 2020      	.DB  0x20,0x4F,0x4E,0x20,0x20,0x20,0x20,0x20
000446 2020
000447 2020
000448 2020
000449 2020      	.DB  0x20,0x20,0x20,0x20,0x20,0x20,0x20,0x20
00044a 2020
00044b 0000
00044c 5800
00044d 2010      	.DB  0x20,0x20,0x0,0x0,0x0,LOW(_ActuatorsActivation),HIGH(_ActuatorsActivation),0x20
00044e 4f20
00044f 4646
000450 2020
000451 2020      	.DB  0x20,0x4F,0x46,0x46,0x20,0x20,0x20,0x20
000452 2020
000453 2020
000454 2020
000455 2020      	.DB  0x20,0x20,0x20,0x20,0x20,0x20,0x20,0x20
000456 2020
000457 0000
000458 5800
000459 2010      	.DB  0x20,0x20,0x0,0x0,0x0,LOW(_ActuatorsActivation),HIGH(_ActuatorsActivation),0x20
00045a 4e20
00045b 6e6f
00045c 2065
00045d 2020      	.DB  0x20,0x4E,0x6F,0x6E,0x65,0x20,0x20,0x20
00045e 2020
00045f 2020
000460 2020
000461 2020      	.DB  0x20,0x20,0x20,0x20,0x20,0x20,0x20,0x20
000462 2020
000463 0000
000464 0000
D:\DuAnLon\VuonThongMinh\atmega128\Debug\List\main.asm(1429): warning: .cseg .db misalignment - padding zero byte
000465 0000      	.DB  0x20,0x20,0x0,0x0,0x0,0x0,0x0
                 _RelayMenu:
000466 ec00
000467 2003
000468 2020
000469 5220      	.DB  0x0,LOW(_ThietbiMenu*2),HIGH(_ThietbiMenu*2),0x20,0x20,0x20,0x20,0x52
00046a 6c65
00046b 7961
00046c 2020
00046d 2020      	.DB  0x65,0x6C,0x61,0x79,0x20,0x20,0x20,0x20
00046e 2020
00046f 2020
000470 2020
000471 2000      	.DB  0x20,0x20,0x20,0x20,0x20,0x20,0x0,0x20
000472 4e20
000473 6f68
000474 206d
000475 2031      	.DB  0x20,0x4E,0x68,0x6F,0x6D,0x20,0x31,0x20
000476 2020
000477 2020
000478 2020
000479 2020      	.DB  0x20,0x20,0x20,0x20,0x20,0x20,0x20,0x20
00047a 2020
00047b 2c00
00047c 0009
00047d 2000      	.DB  0x20,0x20,0x0,LOW(_RelayNhom1Menu*2),HIGH(_RelayNhom1Menu*2),0x0,0x0,0x20
00047e 4e20
00047f 6f68
000480 206d
000481 2032      	.DB  0x20,0x4E,0x68,0x6F,0x6D,0x20,0x32,0x20
000482 2020
000483 2020
000484 2020
000485 2020      	.DB  0x20,0x20,0x20,0x20,0x20,0x20,0x20,0x20
000486 2020
000487 ac00
000488 000a
000489 2000      	.DB  0x20,0x20,0x0,LOW(_RelayNhom2Menu*2),HIGH(_RelayNhom2Menu*2),0x0,0x0,0x20
00048a 4e20
00048b 6f68
00048c 206d
00048d 2033      	.DB  0x20,0x4E,0x68,0x6F,0x6D,0x20,0x33,0x20
00048e 2020
00048f 2020
000490 2020
000491 2020      	.DB  0x20,0x20,0x20,0x20,0x20,0x20,0x20,0x20
000492 2020
000493 2c00
000494 000c
D:\DuAnLon\VuonThongMinh\atmega128\Debug\List\main.asm(1442): warning: .cseg .db misalignment - padding zero byte
000495 0000      	.DB  0x20,0x20,0x0,LOW(_RelayNhom3Menu*2),HIGH(_RelayNhom3Menu*2),0x0,0x0
                 _RelayNhom1Menu:
000496 cc00
000497 2008
000498 2020
000499 4e20      	.DB  0x0,LOW(_RelayMenu*2),HIGH(_RelayMenu*2),0x20,0x20,0x20,0x20,0x4E
00049a 6f68
00049b 206d
00049c 2031
00049d 2020      	.DB  0x68,0x6F,0x6D,0x20,0x31,0x20,0x20,0x20
00049e 2020
00049f 2020
0004a0 2020
0004a1 2000      	.DB  0x20,0x20,0x20,0x20,0x20,0x20,0x0,0x20
0004a2 5220
0004a3 6c65
0004a4 7961
0004a5 3120      	.DB  0x20,0x52,0x65,0x6C,0x61,0x79,0x20,0x31
0004a6 2020
0004a7 2020
0004a8 2020
0004a9 2020      	.DB  0x20,0x20,0x20,0x20,0x20,0x20,0x20,0x20
0004aa 2020
0004ab 8c00
0004ac 0009
0004ad 2000      	.DB  0x20,0x20,0x0,LOW(_Relay1Menu*2),HIGH(_Relay1Menu*2),0x0,0x0,0x20
0004ae 5220
0004af 6c65
0004b0 7961
0004b1 3220      	.DB  0x20,0x52,0x65,0x6C,0x61,0x79,0x20,0x32
0004b2 2020
0004b3 2020
0004b4 2020
0004b5 2020      	.DB  0x20,0x20,0x20,0x20,0x20,0x20,0x20,0x20
0004b6 2020
0004b7 ec00
0004b8 0009
0004b9 2000      	.DB  0x20,0x20,0x0,LOW(_Relay2Menu*2),HIGH(_Relay2Menu*2),0x0,0x0,0x20
0004ba 5220
0004bb 6c65
0004bc 7961
0004bd 3320      	.DB  0x20,0x52,0x65,0x6C,0x61,0x79,0x20,0x33
0004be 2020
0004bf 2020
0004c0 2020
0004c1 2020      	.DB  0x20,0x20,0x20,0x20,0x20,0x20,0x20,0x20
0004c2 2020
0004c3 4c00
0004c4 000a
D:\DuAnLon\VuonThongMinh\atmega128\Debug\List\main.asm(1455): warning: .cseg .db misalignment - padding zero byte
0004c5 0000      	.DB  0x20,0x20,0x0,LOW(_Relay3Menu*2),HIGH(_Relay3Menu*2),0x0,0x0
                 _Relay1Menu:
0004c6 2c0d
0004c7 2009
0004c8 2020
0004c9 5220      	.DB  0xD,LOW(_RelayNhom1Menu*2),HIGH(_RelayNhom1Menu*2),0x20,0x20,0x20,0x20,0x52
0004ca 6c65
0004cb 7961
0004cc 3120
0004cd 2020      	.DB  0x65,0x6C,0x61,0x79,0x20,0x31,0x20,0x20
0004ce 2020
0004cf 2020
0004d0 2020
0004d1 2000      	.DB  0x20,0x20,0x20,0x20,0x20,0x20,0x0,0x20
0004d2 4f20
0004d3 204e
0004d4 2020
0004d5 2020      	.DB  0x20,0x4F,0x4E,0x20,0x20,0x20,0x20,0x20
0004d6 2020
0004d7 2020
0004d8 2020
0004d9 2020      	.DB  0x20,0x20,0x20,0x20,0x20,0x20,0x20,0x20
0004da 2020
0004db 0000
0004dc 5800
0004dd 2010      	.DB  0x20,0x20,0x0,0x0,0x0,LOW(_ActuatorsActivation),HIGH(_ActuatorsActivation),0x20
0004de 4f20
0004df 4646
0004e0 2020
0004e1 2020      	.DB  0x20,0x4F,0x46,0x46,0x20,0x20,0x20,0x20
0004e2 2020
0004e3 2020
0004e4 2020
0004e5 2020      	.DB  0x20,0x20,0x20,0x20,0x20,0x20,0x20,0x20
0004e6 2020
0004e7 0000
0004e8 5800
0004e9 2010      	.DB  0x20,0x20,0x0,0x0,0x0,LOW(_ActuatorsActivation),HIGH(_ActuatorsActivation),0x20
0004ea 4e20
0004eb 6e6f
0004ec 2065
0004ed 2020      	.DB  0x20,0x4E,0x6F,0x6E,0x65,0x20,0x20,0x20
0004ee 2020
0004ef 2020
0004f0 2020
0004f1 2020      	.DB  0x20,0x20,0x20,0x20,0x20,0x20,0x20,0x20
0004f2 2020
0004f3 0000
0004f4 0000
D:\DuAnLon\VuonThongMinh\atmega128\Debug\List\main.asm(1468): warning: .cseg .db misalignment - padding zero byte
0004f5 0000      	.DB  0x20,0x20,0x0,0x0,0x0,0x0,0x0
                 _Relay2Menu:
0004f6 2c0e
0004f7 2009
0004f8 2020
0004f9 5220      	.DB  0xE,LOW(_RelayNhom1Menu*2),HIGH(_RelayNhom1Menu*2),0x20,0x20,0x20,0x20,0x52
0004fa 6c65
0004fb 7961
0004fc 3220
0004fd 2020      	.DB  0x65,0x6C,0x61,0x79,0x20,0x32,0x20,0x20
0004fe 2020
0004ff 2020
000500 2020
000501 2000      	.DB  0x20,0x20,0x20,0x20,0x20,0x20,0x0,0x20
000502 4f20
000503 204e
000504 2020
000505 2020      	.DB  0x20,0x4F,0x4E,0x20,0x20,0x20,0x20,0x20
000506 2020
000507 2020
000508 2020
000509 2020      	.DB  0x20,0x20,0x20,0x20,0x20,0x20,0x20,0x20
00050a 2020
00050b 0000
00050c 5800
00050d 2010      	.DB  0x20,0x20,0x0,0x0,0x0,LOW(_ActuatorsActivation),HIGH(_ActuatorsActivation),0x20
00050e 4f20
00050f 4646
000510 2020
000511 2020      	.DB  0x20,0x4F,0x46,0x46,0x20,0x20,0x20,0x20
000512 2020
000513 2020
000514 2020
000515 2020      	.DB  0x20,0x20,0x20,0x20,0x20,0x20,0x20,0x20
000516 2020
000517 0000
000518 5800
000519 2010      	.DB  0x20,0x20,0x0,0x0,0x0,LOW(_ActuatorsActivation),HIGH(_ActuatorsActivation),0x20
00051a 4e20
00051b 6e6f
00051c 2065
00051d 2020      	.DB  0x20,0x4E,0x6F,0x6E,0x65,0x20,0x20,0x20
00051e 2020
00051f 2020
000520 2020
000521 2020      	.DB  0x20,0x20,0x20,0x20,0x20,0x20,0x20,0x20
000522 2020
000523 0000
000524 0000
D:\DuAnLon\VuonThongMinh\atmega128\Debug\List\main.asm(1481): warning: .cseg .db misalignment - padding zero byte
000525 0000      	.DB  0x20,0x20,0x0,0x0,0x0,0x0,0x0
                 _Relay3Menu:
000526 2c0f
000527 2009
000528 2020
000529 5220      	.DB  0xF,LOW(_RelayNhom1Menu*2),HIGH(_RelayNhom1Menu*2),0x20,0x20,0x20,0x20,0x52
00052a 6c65
00052b 7961
00052c 3320
00052d 2020      	.DB  0x65,0x6C,0x61,0x79,0x20,0x33,0x20,0x20
00052e 2020
00052f 2020
000530 2020
000531 2000      	.DB  0x20,0x20,0x20,0x20,0x20,0x20,0x0,0x20
000532 4f20
000533 204e
000534 2020
000535 2020      	.DB  0x20,0x4F,0x4E,0x20,0x20,0x20,0x20,0x20
000536 2020
000537 2020
000538 2020
000539 2020      	.DB  0x20,0x20,0x20,0x20,0x20,0x20,0x20,0x20
00053a 2020
00053b 0000
00053c 5800
00053d 2010      	.DB  0x20,0x20,0x0,0x0,0x0,LOW(_ActuatorsActivation),HIGH(_ActuatorsActivation),0x20
00053e 4f20
00053f 4646
000540 2020
000541 2020      	.DB  0x20,0x4F,0x46,0x46,0x20,0x20,0x20,0x20
000542 2020
000543 2020
000544 2020
000545 2020      	.DB  0x20,0x20,0x20,0x20,0x20,0x20,0x20,0x20
000546 2020
000547 0000
000548 5800
000549 2010      	.DB  0x20,0x20,0x0,0x0,0x0,LOW(_ActuatorsActivation),HIGH(_ActuatorsActivation),0x20
00054a 4e20
00054b 6e6f
00054c 2065
00054d 2020      	.DB  0x20,0x4E,0x6F,0x6E,0x65,0x20,0x20,0x20
00054e 2020
00054f 2020
000550 2020
000551 2020      	.DB  0x20,0x20,0x20,0x20,0x20,0x20,0x20,0x20
000552 2020
000553 0000
000554 0000
D:\DuAnLon\VuonThongMinh\atmega128\Debug\List\main.asm(1494): warning: .cseg .db misalignment - padding zero byte
000555 0000      	.DB  0x20,0x20,0x0,0x0,0x0,0x0,0x0
                 _RelayNhom2Menu:
000556 cc00
000557 2008
000558 2020
000559 4e20      	.DB  0x0,LOW(_RelayMenu*2),HIGH(_RelayMenu*2),0x20,0x20,0x20,0x20,0x4E
00055a 6f68
00055b 206d
00055c 2032
00055d 2020      	.DB  0x68,0x6F,0x6D,0x20,0x32,0x20,0x20,0x20
00055e 2020
00055f 2020
000560 2020
000561 2000      	.DB  0x20,0x20,0x20,0x20,0x20,0x20,0x0,0x20
000562 5220
000563 6c65
000564 7961
000565 3420      	.DB  0x20,0x52,0x65,0x6C,0x61,0x79,0x20,0x34
000566 2020
000567 2020
000568 2020
000569 2020      	.DB  0x20,0x20,0x20,0x20,0x20,0x20,0x20,0x20
00056a 2020
00056b 0c00
00056c 000b
00056d 2000      	.DB  0x20,0x20,0x0,LOW(_Relay4Menu*2),HIGH(_Relay4Menu*2),0x0,0x0,0x20
00056e 5220
00056f 6c65
000570 7961
000571 3520      	.DB  0x20,0x52,0x65,0x6C,0x61,0x79,0x20,0x35
000572 2020
000573 2020
000574 2020
000575 2020      	.DB  0x20,0x20,0x20,0x20,0x20,0x20,0x20,0x20
000576 2020
000577 6c00
000578 000b
000579 2000      	.DB  0x20,0x20,0x0,LOW(_Relay5Menu*2),HIGH(_Relay5Menu*2),0x0,0x0,0x20
00057a 5220
00057b 6c65
00057c 7961
00057d 3620      	.DB  0x20,0x52,0x65,0x6C,0x61,0x79,0x20,0x36
00057e 2020
00057f 2020
000580 2020
000581 2020      	.DB  0x20,0x20,0x20,0x20,0x20,0x20,0x20,0x20
000582 2020
000583 cc00
000584 000b
D:\DuAnLon\VuonThongMinh\atmega128\Debug\List\main.asm(1507): warning: .cseg .db misalignment - padding zero byte
000585 0000      	.DB  0x20,0x20,0x0,LOW(_Relay6Menu*2),HIGH(_Relay6Menu*2),0x0,0x0
                 _Relay4Menu:
000586 ac10
000587 200a
000588 2020
000589 5220      	.DB  0x10,LOW(_RelayNhom2Menu*2),HIGH(_RelayNhom2Menu*2),0x20,0x20,0x20,0x20,0x52
00058a 6c65
00058b 7961
00058c 3420
00058d 2020      	.DB  0x65,0x6C,0x61,0x79,0x20,0x34,0x20,0x20
00058e 2020
00058f 2020
000590 2020
000591 2000      	.DB  0x20,0x20,0x20,0x20,0x20,0x20,0x0,0x20
000592 4f20
000593 204e
000594 2020
000595 2020      	.DB  0x20,0x4F,0x4E,0x20,0x20,0x20,0x20,0x20
000596 2020
000597 2020
000598 2020
000599 2020      	.DB  0x20,0x20,0x20,0x20,0x20,0x20,0x20,0x20
00059a 2020
00059b 0000
00059c 5800
00059d 2010      	.DB  0x20,0x20,0x0,0x0,0x0,LOW(_ActuatorsActivation),HIGH(_ActuatorsActivation),0x20
00059e 4f20
00059f 4646
0005a0 2020
0005a1 2020      	.DB  0x20,0x4F,0x46,0x46,0x20,0x20,0x20,0x20
0005a2 2020
0005a3 2020
0005a4 2020
0005a5 2020      	.DB  0x20,0x20,0x20,0x20,0x20,0x20,0x20,0x20
0005a6 2020
0005a7 0000
0005a8 5800
0005a9 2010      	.DB  0x20,0x20,0x0,0x0,0x0,LOW(_ActuatorsActivation),HIGH(_ActuatorsActivation),0x20
0005aa 4e20
0005ab 6e6f
0005ac 2065
0005ad 2020      	.DB  0x20,0x4E,0x6F,0x6E,0x65,0x20,0x20,0x20
0005ae 2020
0005af 2020
0005b0 2020
0005b1 2020      	.DB  0x20,0x20,0x20,0x20,0x20,0x20,0x20,0x20
0005b2 2020
0005b3 0000
0005b4 0000
D:\DuAnLon\VuonThongMinh\atmega128\Debug\List\main.asm(1520): warning: .cseg .db misalignment - padding zero byte
0005b5 0000      	.DB  0x20,0x20,0x0,0x0,0x0,0x0,0x0
                 _Relay5Menu:
0005b6 ac11
0005b7 200a
0005b8 2020
0005b9 5220      	.DB  0x11,LOW(_RelayNhom2Menu*2),HIGH(_RelayNhom2Menu*2),0x20,0x20,0x20,0x20,0x52
0005ba 6c65
0005bb 7961
0005bc 3520
0005bd 2020      	.DB  0x65,0x6C,0x61,0x79,0x20,0x35,0x20,0x20
0005be 2020
0005bf 2020
0005c0 2020
0005c1 2000      	.DB  0x20,0x20,0x20,0x20,0x20,0x20,0x0,0x20
0005c2 4f20
0005c3 204e
0005c4 2020
0005c5 2020      	.DB  0x20,0x4F,0x4E,0x20,0x20,0x20,0x20,0x20
0005c6 2020
0005c7 2020
0005c8 2020
0005c9 2020      	.DB  0x20,0x20,0x20,0x20,0x20,0x20,0x20,0x20
0005ca 2020
0005cb 0000
0005cc 5800
0005cd 2010      	.DB  0x20,0x20,0x0,0x0,0x0,LOW(_ActuatorsActivation),HIGH(_ActuatorsActivation),0x20
0005ce 4f20
0005cf 4646
0005d0 2020
0005d1 2020      	.DB  0x20,0x4F,0x46,0x46,0x20,0x20,0x20,0x20
0005d2 2020
0005d3 2020
0005d4 2020
0005d5 2020      	.DB  0x20,0x20,0x20,0x20,0x20,0x20,0x20,0x20
0005d6 2020
0005d7 0000
0005d8 5800
0005d9 2010      	.DB  0x20,0x20,0x0,0x0,0x0,LOW(_ActuatorsActivation),HIGH(_ActuatorsActivation),0x20
0005da 4e20
0005db 6e6f
0005dc 2065
0005dd 2020      	.DB  0x20,0x4E,0x6F,0x6E,0x65,0x20,0x20,0x20
0005de 2020
0005df 2020
0005e0 2020
0005e1 2020      	.DB  0x20,0x20,0x20,0x20,0x20,0x20,0x20,0x20
0005e2 2020
0005e3 0000
0005e4 0000
D:\DuAnLon\VuonThongMinh\atmega128\Debug\List\main.asm(1533): warning: .cseg .db misalignment - padding zero byte
0005e5 0000      	.DB  0x20,0x20,0x0,0x0,0x0,0x0,0x0
                 _Relay6Menu:
0005e6 ac12
0005e7 200a
0005e8 2020
0005e9 5220      	.DB  0x12,LOW(_RelayNhom2Menu*2),HIGH(_RelayNhom2Menu*2),0x20,0x20,0x20,0x20,0x52
0005ea 6c65
0005eb 7961
0005ec 3620
0005ed 2020      	.DB  0x65,0x6C,0x61,0x79,0x20,0x36,0x20,0x20
0005ee 2020
0005ef 2020
0005f0 2020
0005f1 2000      	.DB  0x20,0x20,0x20,0x20,0x20,0x20,0x0,0x20
0005f2 4f20
0005f3 204e
0005f4 2020
0005f5 2020      	.DB  0x20,0x4F,0x4E,0x20,0x20,0x20,0x20,0x20
0005f6 2020
0005f7 2020
0005f8 2020
0005f9 2020      	.DB  0x20,0x20,0x20,0x20,0x20,0x20,0x20,0x20
0005fa 2020
0005fb 0000
0005fc 5800
0005fd 2010      	.DB  0x20,0x20,0x0,0x0,0x0,LOW(_ActuatorsActivation),HIGH(_ActuatorsActivation),0x20
0005fe 4f20
0005ff 4646
000600 2020
000601 2020      	.DB  0x20,0x4F,0x46,0x46,0x20,0x20,0x20,0x20
000602 2020
000603 2020
000604 2020
000605 2020      	.DB  0x20,0x20,0x20,0x20,0x20,0x20,0x20,0x20
000606 2020
000607 0000
000608 5800
000609 2010      	.DB  0x20,0x20,0x0,0x0,0x0,LOW(_ActuatorsActivation),HIGH(_ActuatorsActivation),0x20
00060a 4e20
00060b 6e6f
00060c 2065
00060d 2020      	.DB  0x20,0x4E,0x6F,0x6E,0x65,0x20,0x20,0x20
00060e 2020
00060f 2020
000610 2020
000611 2020      	.DB  0x20,0x20,0x20,0x20,0x20,0x20,0x20,0x20
000612 2020
000613 0000
000614 0000
D:\DuAnLon\VuonThongMinh\atmega128\Debug\List\main.asm(1546): warning: .cseg .db misalignment - padding zero byte
000615 0000      	.DB  0x20,0x20,0x0,0x0,0x0,0x0,0x0
                 _RelayNhom3Menu:
000616 cc00
000617 2008
000618 2020
000619 4e20      	.DB  0x0,LOW(_RelayMenu*2),HIGH(_RelayMenu*2),0x20,0x20,0x20,0x20,0x4E
00061a 6f68
00061b 206d
00061c 2033
00061d 2020      	.DB  0x68,0x6F,0x6D,0x20,0x33,0x20,0x20,0x20
00061e 2020
00061f 2020
000620 2020
000621 2000      	.DB  0x20,0x20,0x20,0x20,0x20,0x20,0x0,0x20
000622 5220
000623 6c65
000624 7961
000625 3720      	.DB  0x20,0x52,0x65,0x6C,0x61,0x79,0x20,0x37
000626 2020
000627 2020
000628 2020
000629 2020      	.DB  0x20,0x20,0x20,0x20,0x20,0x20,0x20,0x20
00062a 2020
00062b 8c00
00062c 000c
00062d 2000      	.DB  0x20,0x20,0x0,LOW(_Relay7Menu*2),HIGH(_Relay7Menu*2),0x0,0x0,0x20
00062e 5220
00062f 6c65
000630 7961
000631 3820      	.DB  0x20,0x52,0x65,0x6C,0x61,0x79,0x20,0x38
000632 2020
000633 2020
000634 2020
000635 2020      	.DB  0x20,0x20,0x20,0x20,0x20,0x20,0x20,0x20
000636 2020
000637 ec00
000638 000c
000639 2000      	.DB  0x20,0x20,0x0,LOW(_Relay8Menu*2),HIGH(_Relay8Menu*2),0x0,0x0,0x20
00063a 4e20
00063b 6e6f
00063c 2065
00063d 2020      	.DB  0x20,0x4E,0x6F,0x6E,0x65,0x20,0x20,0x20
00063e 2020
00063f 2020
000640 2020
000641 0020      	.DB  0x20,0x20,0x20,0x20,0x20,0x20,0x20,0x0
000642 0000
000643 0000
000644 0000
D:\DuAnLon\VuonThongMinh\atmega128\Debug\List\main.asm(1559): warning: .cseg .db misalignment - padding zero byte
000645 0000      	.DB  0x0,0x0,0x0,0x0,0x0,0x0,0x0
                 _Relay7Menu:
000646 2c13
000647 200c
000648 2020
000649 5220      	.DB  0x13,LOW(_RelayNhom3Menu*2),HIGH(_RelayNhom3Menu*2),0x20,0x20,0x20,0x20,0x52
00064a 6c65
00064b 7961
00064c 3720
00064d 2020      	.DB  0x65,0x6C,0x61,0x79,0x20,0x37,0x20,0x20
00064e 2020
00064f 2020
000650 2020
000651 2000      	.DB  0x20,0x20,0x20,0x20,0x20,0x20,0x0,0x20
000652 4f20
000653 204e
000654 2020
000655 2020      	.DB  0x20,0x4F,0x4E,0x20,0x20,0x20,0x20,0x20
000656 2020
000657 2020
000658 2020
000659 2020      	.DB  0x20,0x20,0x20,0x20,0x20,0x20,0x20,0x20
00065a 2020
00065b 0000
00065c 5800
00065d 2010      	.DB  0x20,0x20,0x0,0x0,0x0,LOW(_ActuatorsActivation),HIGH(_ActuatorsActivation),0x20
00065e 4f20
00065f 4646
000660 2020
000661 2020      	.DB  0x20,0x4F,0x46,0x46,0x20,0x20,0x20,0x20
000662 2020
000663 2020
000664 2020
000665 2020      	.DB  0x20,0x20,0x20,0x20,0x20,0x20,0x20,0x20
000666 2020
000667 0000
000668 5800
000669 2010      	.DB  0x20,0x20,0x0,0x0,0x0,LOW(_ActuatorsActivation),HIGH(_ActuatorsActivation),0x20
00066a 4e20
00066b 6e6f
00066c 2065
00066d 2020      	.DB  0x20,0x4E,0x6F,0x6E,0x65,0x20,0x20,0x20
00066e 2020
00066f 2020
000670 2020
000671 2020      	.DB  0x20,0x20,0x20,0x20,0x20,0x20,0x20,0x20
000672 2020
000673 0000
000674 0000
D:\DuAnLon\VuonThongMinh\atmega128\Debug\List\main.asm(1572): warning: .cseg .db misalignment - padding zero byte
000675 0000      	.DB  0x20,0x20,0x0,0x0,0x0,0x0,0x0
                 _Relay8Menu:
000676 2c14
000677 200c
000678 2020
000679 5220      	.DB  0x14,LOW(_RelayNhom3Menu*2),HIGH(_RelayNhom3Menu*2),0x20,0x20,0x20,0x20,0x52
00067a 6c65
00067b 7961
00067c 3820
00067d 2020      	.DB  0x65,0x6C,0x61,0x79,0x20,0x38,0x20,0x20
00067e 2020
00067f 2020
000680 2020
000681 2000      	.DB  0x20,0x20,0x20,0x20,0x20,0x20,0x0,0x20
000682 4f20
000683 204e
000684 2020
000685 2020      	.DB  0x20,0x4F,0x4E,0x20,0x20,0x20,0x20,0x20
000686 2020
000687 2020
000688 2020
000689 2020      	.DB  0x20,0x20,0x20,0x20,0x20,0x20,0x20,0x20
00068a 2020
00068b 0000
00068c 5800
00068d 2010      	.DB  0x20,0x20,0x0,0x0,0x0,LOW(_ActuatorsActivation),HIGH(_ActuatorsActivation),0x20
00068e 4f20
00068f 4646
000690 2020
000691 2020      	.DB  0x20,0x4F,0x46,0x46,0x20,0x20,0x20,0x20
000692 2020
000693 2020
000694 2020
000695 2020      	.DB  0x20,0x20,0x20,0x20,0x20,0x20,0x20,0x20
000696 2020
000697 0000
000698 5800
000699 2010      	.DB  0x20,0x20,0x0,0x0,0x0,LOW(_ActuatorsActivation),HIGH(_ActuatorsActivation),0x20
00069a 4e20
00069b 6e6f
00069c 2065
00069d 2020      	.DB  0x20,0x4E,0x6F,0x6E,0x65,0x20,0x20,0x20
00069e 2020
00069f 2020
0006a0 2020
0006a1 2020      	.DB  0x20,0x20,0x20,0x20,0x20,0x20,0x20,0x20
0006a2 2020
0006a3 0000
0006a4 0000
D:\DuAnLon\VuonThongMinh\atmega128\Debug\List\main.asm(1585): warning: .cseg .db misalignment - padding zero byte
0006a5 0000      	.DB  0x20,0x20,0x0,0x0,0x0,0x0,0x0
                 _SettingHengio:
0006a6 ac00
0006a7 2001
0006a8 2020
0006a9 4820      	.DB  0x0,LOW(_SettingMenu*2),HIGH(_SettingMenu*2),0x20,0x20,0x20,0x20,0x48
0006aa 6e65
0006ab 4720
0006ac 6f69
0006ad 2020      	.DB  0x65,0x6E,0x20,0x47,0x69,0x6F,0x20,0x20
0006ae 2020
0006af 2020
0006b0 2020
0006b1 2000      	.DB  0x20,0x20,0x20,0x20,0x20,0x20,0x0,0x20
0006b2 4420
0006b3 6e65
0006b4 2020
0006b5 2020      	.DB  0x20,0x44,0x65,0x6E,0x20,0x20,0x20,0x20
0006b6 2020
0006b7 2020
0006b8 2020
0006b9 2020      	.DB  0x20,0x20,0x20,0x20,0x20,0x20,0x20,0x20
0006ba 2020
0006bb ac00
0006bc 000d
0006bd 2000      	.DB  0x20,0x20,0x0,LOW(_HengioDen*2),HIGH(_HengioDen*2),0x0,0x0,0x20
0006be 5120
0006bf 6175
0006c0 2074
0006c1 2020      	.DB  0x20,0x51,0x75,0x61,0x74,0x20,0x20,0x20
0006c2 2020
0006c3 2020
0006c4 2020
0006c5 2020      	.DB  0x20,0x20,0x20,0x20,0x20,0x20,0x20,0x20
0006c6 2020
0006c7 0c00
0006c8 000e
0006c9 2000      	.DB  0x20,0x20,0x0,LOW(_HengioQuat*2),HIGH(_HengioQuat*2),0x0,0x0,0x20
0006ca 4220
0006cb 6d6f
0006cc 2020
0006cd 2020      	.DB  0x20,0x42,0x6F,0x6D,0x20,0x20,0x20,0x20
0006ce 2020
0006cf 2020
0006d0 2020
0006d1 2020      	.DB  0x20,0x20,0x20,0x20,0x20,0x20,0x20,0x20
0006d2 2020
0006d3 6c00
0006d4 000e
D:\DuAnLon\VuonThongMinh\atmega128\Debug\List\main.asm(1598): warning: .cseg .db misalignment - padding zero byte
0006d5 0000      	.DB  0x20,0x20,0x0,LOW(_HengioBom*2),HIGH(_HengioBom*2),0x0,0x0
                 _HengioDen:
0006d6 4c00
0006d7 200d
0006d8 2020
0006d9 4820      	.DB  0x0,LOW(_SettingHengio*2),HIGH(_SettingHengio*2),0x20,0x20,0x20,0x20,0x48
0006da 6e65
0006db 4720
0006dc 6f69
0006dd 4420      	.DB  0x65,0x6E,0x20,0x47,0x69,0x6F,0x20,0x44
0006de 6e65
0006df 2020
0006e0 2020
0006e1 2000      	.DB  0x65,0x6E,0x20,0x20,0x20,0x20,0x0,0x20
0006e2 4b20
0006e3 7568
0006e4 3120
0006e5 2020      	.DB  0x20,0x4B,0x68,0x75,0x20,0x31,0x20,0x20
0006e6 2020
0006e7 2020
0006e8 2020
0006e9 2020      	.DB  0x20,0x20,0x20,0x20,0x20,0x20,0x20,0x20
0006ea 2020
0006eb cc00
0006ec 000e
0006ed 2000      	.DB  0x20,0x20,0x0,LOW(_HengioDenKhu1*2),HIGH(_HengioDenKhu1*2),0x0,0x0,0x20
0006ee 4b20
0006ef 7568
0006f0 3220
0006f1 2020      	.DB  0x20,0x4B,0x68,0x75,0x20,0x32,0x20,0x20
0006f2 2020
0006f3 2020
0006f4 2020
0006f5 2020      	.DB  0x20,0x20,0x20,0x20,0x20,0x20,0x20,0x20
0006f6 2020
0006f7 4c00
0006f8 0010
0006f9 2000      	.DB  0x20,0x20,0x0,LOW(_HengioDenKhu2*2),HIGH(_HengioDenKhu2*2),0x0,0x0,0x20
0006fa 4b20
0006fb 7568
0006fc 3320
0006fd 2020      	.DB  0x20,0x4B,0x68,0x75,0x20,0x33,0x20,0x20
0006fe 2020
0006ff 2020
000700 2020
000701 2020      	.DB  0x20,0x20,0x20,0x20,0x20,0x20,0x20,0x20
000702 2020
000703 cc00
000704 0011
D:\DuAnLon\VuonThongMinh\atmega128\Debug\List\main.asm(1611): warning: .cseg .db misalignment - padding zero byte
000705 0000      	.DB  0x20,0x20,0x0,LOW(_HengioDenKhu3*2),HIGH(_HengioDenKhu3*2),0x0,0x0
                 _HengioQuat:
000706 4c00
000707 200d
000708 2020
000709 4820      	.DB  0x0,LOW(_SettingHengio*2),HIGH(_SettingHengio*2),0x20,0x20,0x20,0x20,0x48
00070a 6e65
00070b 4720
00070c 6f69
00070d 5120      	.DB  0x65,0x6E,0x20,0x47,0x69,0x6F,0x20,0x51
00070e 6175
00070f 2074
000710 2020
000711 2000      	.DB  0x75,0x61,0x74,0x20,0x20,0x20,0x0,0x20
000712 4b20
000713 7568
000714 3120
000715 2020      	.DB  0x20,0x4B,0x68,0x75,0x20,0x31,0x20,0x20
000716 2020
000717 2020
000718 2020
000719 2020      	.DB  0x20,0x20,0x20,0x20,0x20,0x20,0x20,0x20
00071a 2020
00071b 4c00
00071c 0013
00071d 2000      	.DB  0x20,0x20,0x0,LOW(_HengioQuatKhu1*2),HIGH(_HengioQuatKhu1*2),0x0,0x0,0x20
00071e 4b20
00071f 7568
000720 3220
000721 2020      	.DB  0x20,0x4B,0x68,0x75,0x20,0x32,0x20,0x20
000722 2020
000723 2020
000724 2020
000725 2020      	.DB  0x20,0x20,0x20,0x20,0x20,0x20,0x20,0x20
000726 2020
000727 cc00
000728 0014
000729 2000      	.DB  0x20,0x20,0x0,LOW(_HengioQuatKhu2*2),HIGH(_HengioQuatKhu2*2),0x0,0x0,0x20
00072a 4b20
00072b 7568
00072c 3320
00072d 2020      	.DB  0x20,0x4B,0x68,0x75,0x20,0x33,0x20,0x20
00072e 2020
00072f 2020
000730 2020
000731 2020      	.DB  0x20,0x20,0x20,0x20,0x20,0x20,0x20,0x20
000732 2020
000733 4c00
000734 0016
D:\DuAnLon\VuonThongMinh\atmega128\Debug\List\main.asm(1624): warning: .cseg .db misalignment - padding zero byte
000735 0000      	.DB  0x20,0x20,0x0,LOW(_HengioQuatKhu3*2),HIGH(_HengioQuatKhu3*2),0x0,0x0
                 _HengioBom:
000736 4c00
000737 200d
000738 2020
000739 4820      	.DB  0x0,LOW(_SettingHengio*2),HIGH(_SettingHengio*2),0x20,0x20,0x20,0x20,0x48
00073a 6e65
00073b 4720
00073c 6f69
00073d 4220      	.DB  0x65,0x6E,0x20,0x47,0x69,0x6F,0x20,0x42
00073e 6d6f
00073f 2020
000740 2020
000741 2000      	.DB  0x6F,0x6D,0x20,0x20,0x20,0x20,0x0,0x20
000742 4b20
000743 7568
000744 3120
000745 2020      	.DB  0x20,0x4B,0x68,0x75,0x20,0x31,0x20,0x20
000746 2020
000747 2020
000748 2020
000749 2020      	.DB  0x20,0x20,0x20,0x20,0x20,0x20,0x20,0x20
00074a 2020
00074b cc00
00074c 0017
00074d 2000      	.DB  0x20,0x20,0x0,LOW(_HengioBomKhu1*2),HIGH(_HengioBomKhu1*2),0x0,0x0,0x20
00074e 4b20
00074f 7568
000750 3220
000751 2020      	.DB  0x20,0x4B,0x68,0x75,0x20,0x32,0x20,0x20
000752 2020
000753 2020
000754 2020
000755 2020      	.DB  0x20,0x20,0x20,0x20,0x20,0x20,0x20,0x20
000756 2020
000757 4c00
000758 0019
000759 2000      	.DB  0x20,0x20,0x0,LOW(_HengioBomKhu2*2),HIGH(_HengioBomKhu2*2),0x0,0x0,0x20
00075a 4b20
00075b 7568
00075c 3320
00075d 2020      	.DB  0x20,0x4B,0x68,0x75,0x20,0x33,0x20,0x20
00075e 2020
00075f 2020
000760 2020
000761 2020      	.DB  0x20,0x20,0x20,0x20,0x20,0x20,0x20,0x20
000762 2020
000763 cc00
000764 001a
D:\DuAnLon\VuonThongMinh\atmega128\Debug\List\main.asm(1637): warning: .cseg .db misalignment - padding zero byte
000765 0000      	.DB  0x20,0x20,0x0,LOW(_HengioBomKhu3*2),HIGH(_HengioBomKhu3*2),0x0,0x0
                 _HengioDenKhu1:
000766 ac00
000767 200d
000768 6548
000769 206e      	.DB  0x0,LOW(_HengioDen*2),HIGH(_HengioDen*2),0x20,0x48,0x65,0x6E,0x20
00076a 6947
00076b 206f
00076c 6544
00076d 206e      	.DB  0x47,0x69,0x6F,0x20,0x44,0x65,0x6E,0x20
00076e 684b
00076f 2075
000770 2031
000771 2000      	.DB  0x4B,0x68,0x75,0x20,0x31,0x20,0x0,0x20
000772 4c20
000773 6e61
000774 3120
000775 2020      	.DB  0x20,0x4C,0x61,0x6E,0x20,0x31,0x20,0x20
000776 2020
000777 2020
000778 2020
000779 2020      	.DB  0x20,0x20,0x20,0x20,0x20,0x20,0x20,0x20
00077a 2020
00077b 2c00
00077c 000f
00077d 2000      	.DB  0x20,0x20,0x0,LOW(_HengioDenKhu1Lan1*2),HIGH(_HengioDenKhu1Lan1*2),0x0,0x0,0x20
00077e 4c20
00077f 6e61
000780 3220
000781 2020      	.DB  0x20,0x4C,0x61,0x6E,0x20,0x32,0x20,0x20
000782 2020
000783 2020
000784 2020
000785 2020      	.DB  0x20,0x20,0x20,0x20,0x20,0x20,0x20,0x20
000786 2020
000787 8c00
000788 000f
000789 2000      	.DB  0x20,0x20,0x0,LOW(_HengioDenKhu1Lan2*2),HIGH(_HengioDenKhu1Lan2*2),0x0,0x0,0x20
00078a 4c20
00078b 6e61
00078c 3320
00078d 2020      	.DB  0x20,0x4C,0x61,0x6E,0x20,0x33,0x20,0x20
00078e 2020
00078f 2020
000790 2020
000791 2020      	.DB  0x20,0x20,0x20,0x20,0x20,0x20,0x20,0x20
000792 2020
000793 ec00
000794 000f
D:\DuAnLon\VuonThongMinh\atmega128\Debug\List\main.asm(1650): warning: .cseg .db misalignment - padding zero byte
000795 0000      	.DB  0x20,0x20,0x0,LOW(_HengioDenKhu1Lan3*2),HIGH(_HengioDenKhu1Lan3*2),0x0,0x0
                 _HengioDenKhu1Lan1:
000796 cc00
000797 200e
000798 6548
000799 206e      	.DB  0x0,LOW(_HengioDenKhu1*2),HIGH(_HengioDenKhu1*2),0x20,0x48,0x65,0x6E,0x20
00079a 6947
00079b 206f
00079c 6544
00079d 206e      	.DB  0x47,0x69,0x6F,0x20,0x44,0x65,0x6E,0x20
00079e 614c
00079f 206e
0007a0 2031
0007a1 2000      	.DB  0x4C,0x61,0x6E,0x20,0x31,0x20,0x0,0x20
0007a2 4720
0007a3 6f69
0007a4 2020
0007a5 2020      	.DB  0x20,0x47,0x69,0x6F,0x20,0x20,0x20,0x20
0007a6 2020
0007a7 2020
0007a8 2020
0007a9 2020      	.DB  0x20,0x20,0x20,0x20,0x20,0x20,0x20,0x20
0007aa 2020
0007ab 0000
0007ac 0000
0007ad 2000      	.DB  0x20,0x20,0x0,0x0,0x0,0x0,0x0,0x20
0007ae 5020
0007af 7568
0007b0 2074
0007b1 2020      	.DB  0x20,0x50,0x68,0x75,0x74,0x20,0x20,0x20
0007b2 2020
0007b3 2020
0007b4 2020
0007b5 2020      	.DB  0x20,0x20,0x20,0x20,0x20,0x20,0x20,0x20
0007b6 2020
0007b7 0000
0007b8 0000
0007b9 2000      	.DB  0x20,0x20,0x0,0x0,0x0,0x0,0x0,0x20
0007ba 2020
0007bb 2020
0007bc 4420
0007bd 6c65      	.DB  0x20,0x20,0x20,0x20,0x20,0x44,0x65,0x6C
0007be 7465
0007bf 2065
0007c0 2020
0007c1 2020      	.DB  0x65,0x74,0x65,0x20,0x20,0x20,0x20,0x20
0007c2 2020
0007c3 0000
0007c4 5700
D:\DuAnLon\VuonThongMinh\atmega128\Debug\List\main.asm(1663): warning: .cseg .db misalignment - padding zero byte
0007c5 0010      	.DB  0x20,0x20,0x0,0x0,0x0,LOW(_ActuatorsDelete),HIGH(_ActuatorsDelete)
                 _HengioDenKhu1Lan2:
0007c6 cc01
0007c7 200e
0007c8 6548
0007c9 206e      	.DB  0x1,LOW(_HengioDenKhu1*2),HIGH(_HengioDenKhu1*2),0x20,0x48,0x65,0x6E,0x20
0007ca 6947
0007cb 206f
0007cc 6544
0007cd 206e      	.DB  0x47,0x69,0x6F,0x20,0x44,0x65,0x6E,0x20
0007ce 614c
0007cf 206e
0007d0 2032
0007d1 2000      	.DB  0x4C,0x61,0x6E,0x20,0x32,0x20,0x0,0x20
0007d2 4720
0007d3 6f69
0007d4 2020
0007d5 2020      	.DB  0x20,0x47,0x69,0x6F,0x20,0x20,0x20,0x20
0007d6 2020
0007d7 2020
0007d8 2020
0007d9 2020      	.DB  0x20,0x20,0x20,0x20,0x20,0x20,0x20,0x20
0007da 2020
0007db 0000
0007dc 0000
0007dd 2000      	.DB  0x20,0x20,0x0,0x0,0x0,0x0,0x0,0x20
0007de 5020
0007df 7568
0007e0 2074
0007e1 2020      	.DB  0x20,0x50,0x68,0x75,0x74,0x20,0x20,0x20
0007e2 2020
0007e3 2020
0007e4 2020
0007e5 2020      	.DB  0x20,0x20,0x20,0x20,0x20,0x20,0x20,0x20
0007e6 2020
0007e7 0000
0007e8 0000
0007e9 2000      	.DB  0x20,0x20,0x0,0x0,0x0,0x0,0x0,0x20
0007ea 2020
0007eb 2020
0007ec 4420
0007ed 6c65      	.DB  0x20,0x20,0x20,0x20,0x20,0x44,0x65,0x6C
0007ee 7465
0007ef 2065
0007f0 2020
0007f1 2020      	.DB  0x65,0x74,0x65,0x20,0x20,0x20,0x20,0x20
0007f2 2020
0007f3 0000
0007f4 5700
D:\DuAnLon\VuonThongMinh\atmega128\Debug\List\main.asm(1676): warning: .cseg .db misalignment - padding zero byte
0007f5 0010      	.DB  0x20,0x20,0x0,0x0,0x0,LOW(_ActuatorsDelete),HIGH(_ActuatorsDelete)
                 _HengioDenKhu1Lan3:
0007f6 cc02
0007f7 200e
0007f8 6548
0007f9 206e      	.DB  0x2,LOW(_HengioDenKhu1*2),HIGH(_HengioDenKhu1*2),0x20,0x48,0x65,0x6E,0x20
0007fa 6947
0007fb 206f
0007fc 6544
0007fd 206e      	.DB  0x47,0x69,0x6F,0x20,0x44,0x65,0x6E,0x20
0007fe 614c
0007ff 206e
000800 2033
000801 2000      	.DB  0x4C,0x61,0x6E,0x20,0x33,0x20,0x0,0x20
000802 4720
000803 6f69
000804 2020
000805 2020      	.DB  0x20,0x47,0x69,0x6F,0x20,0x20,0x20,0x20
000806 2020
000807 2020
000808 2020
000809 2020      	.DB  0x20,0x20,0x20,0x20,0x20,0x20,0x20,0x20
00080a 2020
00080b 0000
00080c 0000
00080d 2000      	.DB  0x20,0x20,0x0,0x0,0x0,0x0,0x0,0x20
00080e 5020
00080f 7568
000810 2074
000811 2020      	.DB  0x20,0x50,0x68,0x75,0x74,0x20,0x20,0x20
000812 2020
000813 2020
000814 2020
000815 2020      	.DB  0x20,0x20,0x20,0x20,0x20,0x20,0x20,0x20
000816 2020
000817 0000
000818 0000
000819 2000      	.DB  0x20,0x20,0x0,0x0,0x0,0x0,0x0,0x20
00081a 2020
00081b 2020
00081c 4420
00081d 6c65      	.DB  0x20,0x20,0x20,0x20,0x20,0x44,0x65,0x6C
00081e 7465
00081f 2065
000820 2020
000821 2020      	.DB  0x65,0x74,0x65,0x20,0x20,0x20,0x20,0x20
000822 2020
000823 0000
000824 5700
D:\DuAnLon\VuonThongMinh\atmega128\Debug\List\main.asm(1689): warning: .cseg .db misalignment - padding zero byte
000825 0010      	.DB  0x20,0x20,0x0,0x0,0x0,LOW(_ActuatorsDelete),HIGH(_ActuatorsDelete)
                 _HengioDenKhu2:
000826 ac00
000827 200d
000828 6548
000829 206e      	.DB  0x0,LOW(_HengioDen*2),HIGH(_HengioDen*2),0x20,0x48,0x65,0x6E,0x20
00082a 6947
00082b 206f
00082c 6544
00082d 206e      	.DB  0x47,0x69,0x6F,0x20,0x44,0x65,0x6E,0x20
00082e 684b
00082f 2075
000830 2032
000831 2000      	.DB  0x4B,0x68,0x75,0x20,0x32,0x20,0x0,0x20
000832 4c20
000833 6e61
000834 3120
000835 2020      	.DB  0x20,0x4C,0x61,0x6E,0x20,0x31,0x20,0x20
000836 2020
000837 2020
000838 2020
000839 2020      	.DB  0x20,0x20,0x20,0x20,0x20,0x20,0x20,0x20
00083a 2020
00083b ac00
00083c 0010
00083d 2000      	.DB  0x20,0x20,0x0,LOW(_HengioDenKhu2Lan1*2),HIGH(_HengioDenKhu2Lan1*2),0x0,0x0,0x20
00083e 4c20
00083f 6e61
000840 3220
000841 2020      	.DB  0x20,0x4C,0x61,0x6E,0x20,0x32,0x20,0x20
000842 2020
000843 2020
000844 2020
000845 2020      	.DB  0x20,0x20,0x20,0x20,0x20,0x20,0x20,0x20
000846 2020
000847 0c00
000848 0011
000849 2000      	.DB  0x20,0x20,0x0,LOW(_HengioDenKhu2Lan2*2),HIGH(_HengioDenKhu2Lan2*2),0x0,0x0,0x20
00084a 4c20
00084b 6e61
00084c 3320
00084d 2020      	.DB  0x20,0x4C,0x61,0x6E,0x20,0x33,0x20,0x20
00084e 2020
00084f 2020
000850 2020
000851 2020      	.DB  0x20,0x20,0x20,0x20,0x20,0x20,0x20,0x20
000852 2020
000853 6c00
000854 0011
D:\DuAnLon\VuonThongMinh\atmega128\Debug\List\main.asm(1702): warning: .cseg .db misalignment - padding zero byte
000855 0000      	.DB  0x20,0x20,0x0,LOW(_HengioDenKhu2Lan3*2),HIGH(_HengioDenKhu2Lan3*2),0x0,0x0
                 _HengioDenKhu2Lan1:
000856 4c03
000857 2010
000858 6548
000859 206e      	.DB  0x3,LOW(_HengioDenKhu2*2),HIGH(_HengioDenKhu2*2),0x20,0x48,0x65,0x6E,0x20
00085a 6947
00085b 206f
00085c 6544
00085d 206e      	.DB  0x47,0x69,0x6F,0x20,0x44,0x65,0x6E,0x20
00085e 614c
00085f 206e
000860 2031
000861 2000      	.DB  0x4C,0x61,0x6E,0x20,0x31,0x20,0x0,0x20
000862 4720
000863 6f69
000864 2020
000865 2020      	.DB  0x20,0x47,0x69,0x6F,0x20,0x20,0x20,0x20
000866 2020
000867 2020
000868 2020
000869 2020      	.DB  0x20,0x20,0x20,0x20,0x20,0x20,0x20,0x20
00086a 2020
00086b 0000
00086c 0000
00086d 2000      	.DB  0x20,0x20,0x0,0x0,0x0,0x0,0x0,0x20
00086e 5020
00086f 7568
000870 2074
000871 2020      	.DB  0x20,0x50,0x68,0x75,0x74,0x20,0x20,0x20
000872 2020
000873 2020
000874 2020
000875 2020      	.DB  0x20,0x20,0x20,0x20,0x20,0x20,0x20,0x20
000876 2020
000877 0000
000878 0000
000879 2000      	.DB  0x20,0x20,0x0,0x0,0x0,0x0,0x0,0x20
00087a 2020
00087b 2020
00087c 4420
00087d 6c65      	.DB  0x20,0x20,0x20,0x20,0x20,0x44,0x65,0x6C
00087e 7465
00087f 2065
000880 2020
000881 2020      	.DB  0x65,0x74,0x65,0x20,0x20,0x20,0x20,0x20
000882 2020
000883 0000
000884 5700
D:\DuAnLon\VuonThongMinh\atmega128\Debug\List\main.asm(1715): warning: .cseg .db misalignment - padding zero byte
000885 0010      	.DB  0x20,0x20,0x0,0x0,0x0,LOW(_ActuatorsDelete),HIGH(_ActuatorsDelete)
                 _HengioDenKhu2Lan2:
000886 4c04
000887 2010
000888 6548
000889 206e      	.DB  0x4,LOW(_HengioDenKhu2*2),HIGH(_HengioDenKhu2*2),0x20,0x48,0x65,0x6E,0x20
00088a 6947
00088b 206f
00088c 6544
00088d 206e      	.DB  0x47,0x69,0x6F,0x20,0x44,0x65,0x6E,0x20
00088e 614c
00088f 206e
000890 2032
000891 2000      	.DB  0x4C,0x61,0x6E,0x20,0x32,0x20,0x0,0x20
000892 4720
000893 6f69
000894 2020
000895 2020      	.DB  0x20,0x47,0x69,0x6F,0x20,0x20,0x20,0x20
000896 2020
000897 2020
000898 2020
000899 2020      	.DB  0x20,0x20,0x20,0x20,0x20,0x20,0x20,0x20
00089a 2020
00089b 0000
00089c 0000
00089d 2000      	.DB  0x20,0x20,0x0,0x0,0x0,0x0,0x0,0x20
00089e 5020
00089f 7568
0008a0 2074
0008a1 2020      	.DB  0x20,0x50,0x68,0x75,0x74,0x20,0x20,0x20
0008a2 2020
0008a3 2020
0008a4 2020
0008a5 2020      	.DB  0x20,0x20,0x20,0x20,0x20,0x20,0x20,0x20
0008a6 2020
0008a7 0000
0008a8 0000
0008a9 2000      	.DB  0x20,0x20,0x0,0x0,0x0,0x0,0x0,0x20
0008aa 2020
0008ab 2020
0008ac 4420
0008ad 6c65      	.DB  0x20,0x20,0x20,0x20,0x20,0x44,0x65,0x6C
0008ae 7465
0008af 2065
0008b0 2020
0008b1 2020      	.DB  0x65,0x74,0x65,0x20,0x20,0x20,0x20,0x20
0008b2 2020
0008b3 0000
0008b4 5700
D:\DuAnLon\VuonThongMinh\atmega128\Debug\List\main.asm(1728): warning: .cseg .db misalignment - padding zero byte
0008b5 0010      	.DB  0x20,0x20,0x0,0x0,0x0,LOW(_ActuatorsDelete),HIGH(_ActuatorsDelete)
                 _HengioDenKhu2Lan3:
0008b6 4c05
0008b7 2010
0008b8 6548
0008b9 206e      	.DB  0x5,LOW(_HengioDenKhu2*2),HIGH(_HengioDenKhu2*2),0x20,0x48,0x65,0x6E,0x20
0008ba 6947
0008bb 206f
0008bc 6544
0008bd 206e      	.DB  0x47,0x69,0x6F,0x20,0x44,0x65,0x6E,0x20
0008be 614c
0008bf 206e
0008c0 2033
0008c1 2000      	.DB  0x4C,0x61,0x6E,0x20,0x33,0x20,0x0,0x20
0008c2 4720
0008c3 6f69
0008c4 2020
0008c5 2020      	.DB  0x20,0x47,0x69,0x6F,0x20,0x20,0x20,0x20
0008c6 2020
0008c7 2020
0008c8 2020
0008c9 2020      	.DB  0x20,0x20,0x20,0x20,0x20,0x20,0x20,0x20
0008ca 2020
0008cb 0000
0008cc 0000
0008cd 2000      	.DB  0x20,0x20,0x0,0x0,0x0,0x0,0x0,0x20
0008ce 5020
0008cf 7568
0008d0 2074
0008d1 2020      	.DB  0x20,0x50,0x68,0x75,0x74,0x20,0x20,0x20
0008d2 2020
0008d3 2020
0008d4 2020
0008d5 2020      	.DB  0x20,0x20,0x20,0x20,0x20,0x20,0x20,0x20
0008d6 2020
0008d7 0000
0008d8 0000
0008d9 2000      	.DB  0x20,0x20,0x0,0x0,0x0,0x0,0x0,0x20
0008da 2020
0008db 2020
0008dc 4420
0008dd 6c65      	.DB  0x20,0x20,0x20,0x20,0x20,0x44,0x65,0x6C
0008de 7465
0008df 2065
0008e0 2020
0008e1 2020      	.DB  0x65,0x74,0x65,0x20,0x20,0x20,0x20,0x20
0008e2 2020
0008e3 0000
0008e4 5700
D:\DuAnLon\VuonThongMinh\atmega128\Debug\List\main.asm(1741): warning: .cseg .db misalignment - padding zero byte
0008e5 0010      	.DB  0x20,0x20,0x0,0x0,0x0,LOW(_ActuatorsDelete),HIGH(_ActuatorsDelete)
                 _HengioDenKhu3:
0008e6 ac00
0008e7 200d
0008e8 6548
0008e9 206e      	.DB  0x0,LOW(_HengioDen*2),HIGH(_HengioDen*2),0x20,0x48,0x65,0x6E,0x20
0008ea 6947
0008eb 206f
0008ec 6544
0008ed 206e      	.DB  0x47,0x69,0x6F,0x20,0x44,0x65,0x6E,0x20
0008ee 684b
0008ef 2075
0008f0 2033
0008f1 2000      	.DB  0x4B,0x68,0x75,0x20,0x33,0x20,0x0,0x20
0008f2 4c20
0008f3 6e61
0008f4 3120
0008f5 2020      	.DB  0x20,0x4C,0x61,0x6E,0x20,0x31,0x20,0x20
0008f6 2020
0008f7 2020
0008f8 2020
0008f9 2020      	.DB  0x20,0x20,0x20,0x20,0x20,0x20,0x20,0x20
0008fa 2020
0008fb 2c00
0008fc 0012
0008fd 2000      	.DB  0x20,0x20,0x0,LOW(_HengioDenKhu3Lan1*2),HIGH(_HengioDenKhu3Lan1*2),0x0,0x0,0x20
0008fe 4c20
0008ff 6e61
000900 3220
000901 2020      	.DB  0x20,0x4C,0x61,0x6E,0x20,0x32,0x20,0x20
000902 2020
000903 2020
000904 2020
000905 2020      	.DB  0x20,0x20,0x20,0x20,0x20,0x20,0x20,0x20
000906 2020
000907 8c00
000908 0012
000909 2000      	.DB  0x20,0x20,0x0,LOW(_HengioDenKhu3Lan2*2),HIGH(_HengioDenKhu3Lan2*2),0x0,0x0,0x20
00090a 4c20
00090b 6e61
00090c 3320
00090d 2020      	.DB  0x20,0x4C,0x61,0x6E,0x20,0x33,0x20,0x20
00090e 2020
00090f 2020
000910 2020
000911 2020      	.DB  0x20,0x20,0x20,0x20,0x20,0x20,0x20,0x20
000912 2020
000913 ec00
000914 0012
D:\DuAnLon\VuonThongMinh\atmega128\Debug\List\main.asm(1754): warning: .cseg .db misalignment - padding zero byte
000915 0000      	.DB  0x20,0x20,0x0,LOW(_HengioDenKhu3Lan3*2),HIGH(_HengioDenKhu3Lan3*2),0x0,0x0
                 _HengioDenKhu3Lan1:
000916 cc06
000917 2011
000918 6548
000919 206e      	.DB  0x6,LOW(_HengioDenKhu3*2),HIGH(_HengioDenKhu3*2),0x20,0x48,0x65,0x6E,0x20
00091a 6947
00091b 206f
00091c 6544
00091d 206e      	.DB  0x47,0x69,0x6F,0x20,0x44,0x65,0x6E,0x20
00091e 614c
00091f 206e
000920 2031
000921 2000      	.DB  0x4C,0x61,0x6E,0x20,0x31,0x20,0x0,0x20
000922 4720
000923 6f69
000924 2020
000925 2020      	.DB  0x20,0x47,0x69,0x6F,0x20,0x20,0x20,0x20
000926 2020
000927 2020
000928 2020
000929 2020      	.DB  0x20,0x20,0x20,0x20,0x20,0x20,0x20,0x20
00092a 2020
00092b 0000
00092c 0000
00092d 2000      	.DB  0x20,0x20,0x0,0x0,0x0,0x0,0x0,0x20
00092e 5020
00092f 7568
000930 2074
000931 2020      	.DB  0x20,0x50,0x68,0x75,0x74,0x20,0x20,0x20
000932 2020
000933 2020
000934 2020
000935 2020      	.DB  0x20,0x20,0x20,0x20,0x20,0x20,0x20,0x20
000936 2020
000937 0000
000938 0000
000939 2000      	.DB  0x20,0x20,0x0,0x0,0x0,0x0,0x0,0x20
00093a 2020
00093b 2020
00093c 4420
00093d 6c65      	.DB  0x20,0x20,0x20,0x20,0x20,0x44,0x65,0x6C
00093e 7465
00093f 2065
000940 2020
000941 2020      	.DB  0x65,0x74,0x65,0x20,0x20,0x20,0x20,0x20
000942 2020
000943 0000
000944 5700
D:\DuAnLon\VuonThongMinh\atmega128\Debug\List\main.asm(1767): warning: .cseg .db misalignment - padding zero byte
000945 0010      	.DB  0x20,0x20,0x0,0x0,0x0,LOW(_ActuatorsDelete),HIGH(_ActuatorsDelete)
                 _HengioDenKhu3Lan2:
000946 cc07
000947 2011
000948 6548
000949 206e      	.DB  0x7,LOW(_HengioDenKhu3*2),HIGH(_HengioDenKhu3*2),0x20,0x48,0x65,0x6E,0x20
00094a 6947
00094b 206f
00094c 6544
00094d 206e      	.DB  0x47,0x69,0x6F,0x20,0x44,0x65,0x6E,0x20
00094e 614c
00094f 206e
000950 2032
000951 2000      	.DB  0x4C,0x61,0x6E,0x20,0x32,0x20,0x0,0x20
000952 4720
000953 6f69
000954 2020
000955 2020      	.DB  0x20,0x47,0x69,0x6F,0x20,0x20,0x20,0x20
000956 2020
000957 2020
000958 2020
000959 2020      	.DB  0x20,0x20,0x20,0x20,0x20,0x20,0x20,0x20
00095a 2020
00095b 0000
00095c 0000
00095d 2000      	.DB  0x20,0x20,0x0,0x0,0x0,0x0,0x0,0x20
00095e 5020
00095f 7568
000960 2074
000961 2020      	.DB  0x20,0x50,0x68,0x75,0x74,0x20,0x20,0x20
000962 2020
000963 2020
000964 2020
000965 2020      	.DB  0x20,0x20,0x20,0x20,0x20,0x20,0x20,0x20
000966 2020
000967 0000
000968 0000
000969 2000      	.DB  0x20,0x20,0x0,0x0,0x0,0x0,0x0,0x20
00096a 2020
00096b 2020
00096c 4420
00096d 6c65      	.DB  0x20,0x20,0x20,0x20,0x20,0x44,0x65,0x6C
00096e 7465
00096f 2065
000970 2020
000971 2020      	.DB  0x65,0x74,0x65,0x20,0x20,0x20,0x20,0x20
000972 2020
000973 0000
000974 5700
D:\DuAnLon\VuonThongMinh\atmega128\Debug\List\main.asm(1780): warning: .cseg .db misalignment - padding zero byte
000975 0010      	.DB  0x20,0x20,0x0,0x0,0x0,LOW(_ActuatorsDelete),HIGH(_ActuatorsDelete)
                 _HengioDenKhu3Lan3:
000976 cc08
000977 2011
000978 6548
000979 206e      	.DB  0x8,LOW(_HengioDenKhu3*2),HIGH(_HengioDenKhu3*2),0x20,0x48,0x65,0x6E,0x20
00097a 6947
00097b 206f
00097c 6544
00097d 206e      	.DB  0x47,0x69,0x6F,0x20,0x44,0x65,0x6E,0x20
00097e 614c
00097f 206e
000980 2033
000981 2000      	.DB  0x4C,0x61,0x6E,0x20,0x33,0x20,0x0,0x20
000982 4720
000983 6f69
000984 2020
000985 2020      	.DB  0x20,0x47,0x69,0x6F,0x20,0x20,0x20,0x20
000986 2020
000987 2020
000988 2020
000989 2020      	.DB  0x20,0x20,0x20,0x20,0x20,0x20,0x20,0x20
00098a 2020
00098b 0000
00098c 0000
00098d 2000      	.DB  0x20,0x20,0x0,0x0,0x0,0x0,0x0,0x20
00098e 5020
00098f 7568
000990 2074
000991 2020      	.DB  0x20,0x50,0x68,0x75,0x74,0x20,0x20,0x20
000992 2020
000993 2020
000994 2020
000995 2020      	.DB  0x20,0x20,0x20,0x20,0x20,0x20,0x20,0x20
000996 2020
000997 0000
000998 0000
000999 2000      	.DB  0x20,0x20,0x0,0x0,0x0,0x0,0x0,0x20
00099a 2020
00099b 2020
00099c 4420
00099d 6c65      	.DB  0x20,0x20,0x20,0x20,0x20,0x44,0x65,0x6C
00099e 7465
00099f 2065
0009a0 2020
0009a1 2020      	.DB  0x65,0x74,0x65,0x20,0x20,0x20,0x20,0x20
0009a2 2020
0009a3 0000
0009a4 5700
D:\DuAnLon\VuonThongMinh\atmega128\Debug\List\main.asm(1793): warning: .cseg .db misalignment - padding zero byte
0009a5 0010      	.DB  0x20,0x20,0x0,0x0,0x0,LOW(_ActuatorsDelete),HIGH(_ActuatorsDelete)
                 _HengioQuatKhu1:
0009a6 0c00
0009a7 200e
0009a8 6548
0009a9 206e      	.DB  0x0,LOW(_HengioQuat*2),HIGH(_HengioQuat*2),0x20,0x48,0x65,0x6E,0x20
0009aa 6947
0009ab 206f
0009ac 7551
0009ad 7461      	.DB  0x47,0x69,0x6F,0x20,0x51,0x75,0x61,0x74
0009ae 4b20
0009af 7568
0009b0 3120
0009b1 2000      	.DB  0x20,0x4B,0x68,0x75,0x20,0x31,0x0,0x20
0009b2 4c20
0009b3 6e61
0009b4 3120
0009b5 2020      	.DB  0x20,0x4C,0x61,0x6E,0x20,0x31,0x20,0x20
0009b6 2020
0009b7 2020
0009b8 2020
0009b9 2020      	.DB  0x20,0x20,0x20,0x20,0x20,0x20,0x20,0x20
0009ba 2020
0009bb ac00
0009bc 0013
0009bd 2000      	.DB  0x20,0x20,0x0,LOW(_HengioQuatKhu1Lan1*2),HIGH(_HengioQuatKhu1Lan1*2),0x0,0x0,0x20
0009be 4c20
0009bf 6e61
0009c0 3220
0009c1 2020      	.DB  0x20,0x4C,0x61,0x6E,0x20,0x32,0x20,0x20
0009c2 2020
0009c3 2020
0009c4 2020
0009c5 2020      	.DB  0x20,0x20,0x20,0x20,0x20,0x20,0x20,0x20
0009c6 2020
0009c7 0c00
0009c8 0014
0009c9 2000      	.DB  0x20,0x20,0x0,LOW(_HengioQuatKhu1Lan2*2),HIGH(_HengioQuatKhu1Lan2*2),0x0,0x0,0x20
0009ca 4c20
0009cb 6e61
0009cc 3320
0009cd 2020      	.DB  0x20,0x4C,0x61,0x6E,0x20,0x33,0x20,0x20
0009ce 2020
0009cf 2020
0009d0 2020
0009d1 2020      	.DB  0x20,0x20,0x20,0x20,0x20,0x20,0x20,0x20
0009d2 2020
0009d3 6c00
0009d4 0014
D:\DuAnLon\VuonThongMinh\atmega128\Debug\List\main.asm(1806): warning: .cseg .db misalignment - padding zero byte
0009d5 0000      	.DB  0x20,0x20,0x0,LOW(_HengioQuatKhu1Lan3*2),HIGH(_HengioQuatKhu1Lan3*2),0x0,0x0
                 _HengioQuatKhu1Lan1:
0009d6 4c09
0009d7 2013
0009d8 6548
0009d9 206e      	.DB  0x9,LOW(_HengioQuatKhu1*2),HIGH(_HengioQuatKhu1*2),0x20,0x48,0x65,0x6E,0x20
0009da 6947
0009db 206f
0009dc 7551
0009dd 7461      	.DB  0x47,0x69,0x6F,0x20,0x51,0x75,0x61,0x74
0009de 4c20
0009df 6e61
0009e0 3120
0009e1 2000      	.DB  0x20,0x4C,0x61,0x6E,0x20,0x31,0x0,0x20
0009e2 4720
0009e3 6f69
0009e4 2020
0009e5 2020      	.DB  0x20,0x47,0x69,0x6F,0x20,0x20,0x20,0x20
0009e6 2020
0009e7 2020
0009e8 2020
0009e9 2020      	.DB  0x20,0x20,0x20,0x20,0x20,0x20,0x20,0x20
0009ea 2020
0009eb 0000
0009ec 0000
0009ed 2000      	.DB  0x20,0x20,0x0,0x0,0x0,0x0,0x0,0x20
0009ee 5020
0009ef 7568
0009f0 2074
0009f1 2020      	.DB  0x20,0x50,0x68,0x75,0x74,0x20,0x20,0x20
0009f2 2020
0009f3 2020
0009f4 2020
0009f5 2020      	.DB  0x20,0x20,0x20,0x20,0x20,0x20,0x20,0x20
0009f6 2020
0009f7 0000
0009f8 0000
0009f9 2000      	.DB  0x20,0x20,0x0,0x0,0x0,0x0,0x0,0x20
0009fa 2020
0009fb 2020
0009fc 4420
0009fd 6c65      	.DB  0x20,0x20,0x20,0x20,0x20,0x44,0x65,0x6C
0009fe 7465
0009ff 2065
000a00 2020
000a01 2020      	.DB  0x65,0x74,0x65,0x20,0x20,0x20,0x20,0x20
000a02 2020
000a03 0000
000a04 5700
D:\DuAnLon\VuonThongMinh\atmega128\Debug\List\main.asm(1819): warning: .cseg .db misalignment - padding zero byte
000a05 0010      	.DB  0x20,0x20,0x0,0x0,0x0,LOW(_ActuatorsDelete),HIGH(_ActuatorsDelete)
                 _HengioQuatKhu1Lan2:
000a06 4c0a
000a07 2013
000a08 6548
000a09 206e      	.DB  0xA,LOW(_HengioQuatKhu1*2),HIGH(_HengioQuatKhu1*2),0x20,0x48,0x65,0x6E,0x20
000a0a 6947
000a0b 206f
000a0c 7551
000a0d 7461      	.DB  0x47,0x69,0x6F,0x20,0x51,0x75,0x61,0x74
000a0e 4c20
000a0f 6e61
000a10 3220
000a11 2000      	.DB  0x20,0x4C,0x61,0x6E,0x20,0x32,0x0,0x20
000a12 4720
000a13 6f69
000a14 2020
000a15 2020      	.DB  0x20,0x47,0x69,0x6F,0x20,0x20,0x20,0x20
000a16 2020
000a17 2020
000a18 2020
000a19 2020      	.DB  0x20,0x20,0x20,0x20,0x20,0x20,0x20,0x20
000a1a 2020
000a1b 0000
000a1c 0000
000a1d 2000      	.DB  0x20,0x20,0x0,0x0,0x0,0x0,0x0,0x20
000a1e 5020
000a1f 7568
000a20 2074
000a21 2020      	.DB  0x20,0x50,0x68,0x75,0x74,0x20,0x20,0x20
000a22 2020
000a23 2020
000a24 2020
000a25 2020      	.DB  0x20,0x20,0x20,0x20,0x20,0x20,0x20,0x20
000a26 2020
000a27 0000
000a28 0000
000a29 2000      	.DB  0x20,0x20,0x0,0x0,0x0,0x0,0x0,0x20
000a2a 2020
000a2b 2020
000a2c 4420
000a2d 6c65      	.DB  0x20,0x20,0x20,0x20,0x20,0x44,0x65,0x6C
000a2e 7465
000a2f 2065
000a30 2020
000a31 2020      	.DB  0x65,0x74,0x65,0x20,0x20,0x20,0x20,0x20
000a32 2020
000a33 0000
000a34 5700
D:\DuAnLon\VuonThongMinh\atmega128\Debug\List\main.asm(1832): warning: .cseg .db misalignment - padding zero byte
000a35 0010      	.DB  0x20,0x20,0x0,0x0,0x0,LOW(_ActuatorsDelete),HIGH(_ActuatorsDelete)
                 _HengioQuatKhu1Lan3:
000a36 4c0b
000a37 2013
000a38 6548
000a39 206e      	.DB  0xB,LOW(_HengioQuatKhu1*2),HIGH(_HengioQuatKhu1*2),0x20,0x48,0x65,0x6E,0x20
000a3a 6947
000a3b 206f
000a3c 7551
000a3d 7461      	.DB  0x47,0x69,0x6F,0x20,0x51,0x75,0x61,0x74
000a3e 4c20
000a3f 6e61
000a40 3320
000a41 2000      	.DB  0x20,0x4C,0x61,0x6E,0x20,0x33,0x0,0x20
000a42 4720
000a43 6f69
000a44 2020
000a45 2020      	.DB  0x20,0x47,0x69,0x6F,0x20,0x20,0x20,0x20
000a46 2020
000a47 2020
000a48 2020
000a49 2020      	.DB  0x20,0x20,0x20,0x20,0x20,0x20,0x20,0x20
000a4a 2020
000a4b 0000
000a4c 0000
000a4d 2000      	.DB  0x20,0x20,0x0,0x0,0x0,0x0,0x0,0x20
000a4e 5020
000a4f 7568
000a50 2074
000a51 2020      	.DB  0x20,0x50,0x68,0x75,0x74,0x20,0x20,0x20
000a52 2020
000a53 2020
000a54 2020
000a55 2020      	.DB  0x20,0x20,0x20,0x20,0x20,0x20,0x20,0x20
000a56 2020
000a57 0000
000a58 0000
000a59 2000      	.DB  0x20,0x20,0x0,0x0,0x0,0x0,0x0,0x20
000a5a 2020
000a5b 2020
000a5c 4420
000a5d 6c65      	.DB  0x20,0x20,0x20,0x20,0x20,0x44,0x65,0x6C
000a5e 7465
000a5f 2065
000a60 2020
000a61 2020      	.DB  0x65,0x74,0x65,0x20,0x20,0x20,0x20,0x20
000a62 2020
000a63 0000
000a64 5700
D:\DuAnLon\VuonThongMinh\atmega128\Debug\List\main.asm(1845): warning: .cseg .db misalignment - padding zero byte
000a65 0010      	.DB  0x20,0x20,0x0,0x0,0x0,LOW(_ActuatorsDelete),HIGH(_ActuatorsDelete)
                 _HengioQuatKhu2:
000a66 0c00
000a67 200e
000a68 6548
000a69 206e      	.DB  0x0,LOW(_HengioQuat*2),HIGH(_HengioQuat*2),0x20,0x48,0x65,0x6E,0x20
000a6a 6947
000a6b 206f
000a6c 7551
000a6d 7461      	.DB  0x47,0x69,0x6F,0x20,0x51,0x75,0x61,0x74
000a6e 4b20
000a6f 7568
000a70 3220
000a71 2000      	.DB  0x20,0x4B,0x68,0x75,0x20,0x32,0x0,0x20
000a72 4c20
000a73 6e61
000a74 3120
000a75 2020      	.DB  0x20,0x4C,0x61,0x6E,0x20,0x31,0x20,0x20
000a76 2020
000a77 2020
000a78 2020
000a79 2020      	.DB  0x20,0x20,0x20,0x20,0x20,0x20,0x20,0x20
000a7a 2020
000a7b 2c00
000a7c 0015
000a7d 2000      	.DB  0x20,0x20,0x0,LOW(_HengioQuatKhu2Lan1*2),HIGH(_HengioQuatKhu2Lan1*2),0x0,0x0,0x20
000a7e 4c20
000a7f 6e61
000a80 3220
000a81 2020      	.DB  0x20,0x4C,0x61,0x6E,0x20,0x32,0x20,0x20
000a82 2020
000a83 2020
000a84 2020
000a85 2020      	.DB  0x20,0x20,0x20,0x20,0x20,0x20,0x20,0x20
000a86 2020
000a87 8c00
000a88 0015
000a89 2000      	.DB  0x20,0x20,0x0,LOW(_HengioQuatKhu2Lan2*2),HIGH(_HengioQuatKhu2Lan2*2),0x0,0x0,0x20
000a8a 4c20
000a8b 6e61
000a8c 3320
000a8d 2020      	.DB  0x20,0x4C,0x61,0x6E,0x20,0x33,0x20,0x20
000a8e 2020
000a8f 2020
000a90 2020
000a91 2020      	.DB  0x20,0x20,0x20,0x20,0x20,0x20,0x20,0x20
000a92 2020
000a93 ec00
000a94 0015
D:\DuAnLon\VuonThongMinh\atmega128\Debug\List\main.asm(1858): warning: .cseg .db misalignment - padding zero byte
000a95 0000      	.DB  0x20,0x20,0x0,LOW(_HengioQuatKhu2Lan3*2),HIGH(_HengioQuatKhu2Lan3*2),0x0,0x0
                 _HengioQuatKhu2Lan1:
000a96 cc0c
000a97 2014
000a98 6548
000a99 206e      	.DB  0xC,LOW(_HengioQuatKhu2*2),HIGH(_HengioQuatKhu2*2),0x20,0x48,0x65,0x6E,0x20
000a9a 6947
000a9b 206f
000a9c 7551
000a9d 7461      	.DB  0x47,0x69,0x6F,0x20,0x51,0x75,0x61,0x74
000a9e 4c20
000a9f 6e61
000aa0 3120
000aa1 2000      	.DB  0x20,0x4C,0x61,0x6E,0x20,0x31,0x0,0x20
000aa2 4720
000aa3 6f69
000aa4 2020
000aa5 2020      	.DB  0x20,0x47,0x69,0x6F,0x20,0x20,0x20,0x20
000aa6 2020
000aa7 2020
000aa8 2020
000aa9 2020      	.DB  0x20,0x20,0x20,0x20,0x20,0x20,0x20,0x20
000aaa 2020
000aab 0000
000aac 0000
000aad 2000      	.DB  0x20,0x20,0x0,0x0,0x0,0x0,0x0,0x20
000aae 5020
000aaf 7568
000ab0 2074
000ab1 2020      	.DB  0x20,0x50,0x68,0x75,0x74,0x20,0x20,0x20
000ab2 2020
000ab3 2020
000ab4 2020
000ab5 2020      	.DB  0x20,0x20,0x20,0x20,0x20,0x20,0x20,0x20
000ab6 2020
000ab7 0000
000ab8 0000
000ab9 2000      	.DB  0x20,0x20,0x0,0x0,0x0,0x0,0x0,0x20
000aba 2020
000abb 2020
000abc 4420
000abd 6c65      	.DB  0x20,0x20,0x20,0x20,0x20,0x44,0x65,0x6C
000abe 7465
000abf 2065
000ac0 2020
000ac1 2020      	.DB  0x65,0x74,0x65,0x20,0x20,0x20,0x20,0x20
000ac2 2020
000ac3 0000
000ac4 5700
D:\DuAnLon\VuonThongMinh\atmega128\Debug\List\main.asm(1871): warning: .cseg .db misalignment - padding zero byte
000ac5 0010      	.DB  0x20,0x20,0x0,0x0,0x0,LOW(_ActuatorsDelete),HIGH(_ActuatorsDelete)
                 _HengioQuatKhu2Lan2:
000ac6 cc0d
000ac7 2014
000ac8 6548
000ac9 206e      	.DB  0xD,LOW(_HengioQuatKhu2*2),HIGH(_HengioQuatKhu2*2),0x20,0x48,0x65,0x6E,0x20
000aca 6947
000acb 206f
000acc 7551
000acd 7461      	.DB  0x47,0x69,0x6F,0x20,0x51,0x75,0x61,0x74
000ace 4c20
000acf 6e61
000ad0 3220
000ad1 2000      	.DB  0x20,0x4C,0x61,0x6E,0x20,0x32,0x0,0x20
000ad2 4720
000ad3 6f69
000ad4 2020
000ad5 2020      	.DB  0x20,0x47,0x69,0x6F,0x20,0x20,0x20,0x20
000ad6 2020
000ad7 2020
000ad8 2020
000ad9 2020      	.DB  0x20,0x20,0x20,0x20,0x20,0x20,0x20,0x20
000ada 2020
000adb 0000
000adc 0000
000add 2000      	.DB  0x20,0x20,0x0,0x0,0x0,0x0,0x0,0x20
000ade 5020
000adf 7568
000ae0 2074
000ae1 2020      	.DB  0x20,0x50,0x68,0x75,0x74,0x20,0x20,0x20
000ae2 2020
000ae3 2020
000ae4 2020
000ae5 2020      	.DB  0x20,0x20,0x20,0x20,0x20,0x20,0x20,0x20
000ae6 2020
000ae7 0000
000ae8 0000
000ae9 2000      	.DB  0x20,0x20,0x0,0x0,0x0,0x0,0x0,0x20
000aea 2020
000aeb 2020
000aec 4420
000aed 6c65      	.DB  0x20,0x20,0x20,0x20,0x20,0x44,0x65,0x6C
000aee 7465
000aef 2065
000af0 2020
000af1 2020      	.DB  0x65,0x74,0x65,0x20,0x20,0x20,0x20,0x20
000af2 2020
000af3 0000
000af4 5700
D:\DuAnLon\VuonThongMinh\atmega128\Debug\List\main.asm(1884): warning: .cseg .db misalignment - padding zero byte
000af5 0010      	.DB  0x20,0x20,0x0,0x0,0x0,LOW(_ActuatorsDelete),HIGH(_ActuatorsDelete)
                 _HengioQuatKhu2Lan3:
000af6 cc0e
000af7 2014
000af8 6548
000af9 206e      	.DB  0xE,LOW(_HengioQuatKhu2*2),HIGH(_HengioQuatKhu2*2),0x20,0x48,0x65,0x6E,0x20
000afa 6947
000afb 206f
000afc 7551
000afd 7461      	.DB  0x47,0x69,0x6F,0x20,0x51,0x75,0x61,0x74
000afe 4c20
000aff 6e61
000b00 3320
000b01 2000      	.DB  0x20,0x4C,0x61,0x6E,0x20,0x33,0x0,0x20
000b02 4720
000b03 6f69
000b04 2020
000b05 2020      	.DB  0x20,0x47,0x69,0x6F,0x20,0x20,0x20,0x20
000b06 2020
000b07 2020
000b08 2020
000b09 2020      	.DB  0x20,0x20,0x20,0x20,0x20,0x20,0x20,0x20
000b0a 2020
000b0b 0000
000b0c 0000
000b0d 2000      	.DB  0x20,0x20,0x0,0x0,0x0,0x0,0x0,0x20
000b0e 5020
000b0f 7568
000b10 2074
000b11 2020      	.DB  0x20,0x50,0x68,0x75,0x74,0x20,0x20,0x20
000b12 2020
000b13 2020
000b14 2020
000b15 2020      	.DB  0x20,0x20,0x20,0x20,0x20,0x20,0x20,0x20
000b16 2020
000b17 0000
000b18 0000
000b19 2000      	.DB  0x20,0x20,0x0,0x0,0x0,0x0,0x0,0x20
000b1a 2020
000b1b 2020
000b1c 4420
000b1d 6c65      	.DB  0x20,0x20,0x20,0x20,0x20,0x44,0x65,0x6C
000b1e 7465
000b1f 2065
000b20 2020
000b21 2020      	.DB  0x65,0x74,0x65,0x20,0x20,0x20,0x20,0x20
000b22 2020
000b23 0000
000b24 5700
D:\DuAnLon\VuonThongMinh\atmega128\Debug\List\main.asm(1897): warning: .cseg .db misalignment - padding zero byte
000b25 0010      	.DB  0x20,0x20,0x0,0x0,0x0,LOW(_ActuatorsDelete),HIGH(_ActuatorsDelete)
                 _HengioQuatKhu3:
000b26 0c00
000b27 200e
000b28 6548
000b29 206e      	.DB  0x0,LOW(_HengioQuat*2),HIGH(_HengioQuat*2),0x20,0x48,0x65,0x6E,0x20
000b2a 6947
000b2b 206f
000b2c 7551
000b2d 7461      	.DB  0x47,0x69,0x6F,0x20,0x51,0x75,0x61,0x74
000b2e 4b20
000b2f 7568
000b30 3320
000b31 2000      	.DB  0x20,0x4B,0x68,0x75,0x20,0x33,0x0,0x20
000b32 4c20
000b33 6e61
000b34 3120
000b35 2020      	.DB  0x20,0x4C,0x61,0x6E,0x20,0x31,0x20,0x20
000b36 2020
000b37 2020
000b38 2020
000b39 2020      	.DB  0x20,0x20,0x20,0x20,0x20,0x20,0x20,0x20
000b3a 2020
000b3b ac00
000b3c 0016
000b3d 2000      	.DB  0x20,0x20,0x0,LOW(_HengioQuatKhu3Lan1*2),HIGH(_HengioQuatKhu3Lan1*2),0x0,0x0,0x20
000b3e 4c20
000b3f 6e61
000b40 3220
000b41 2020      	.DB  0x20,0x4C,0x61,0x6E,0x20,0x32,0x20,0x20
000b42 2020
000b43 2020
000b44 2020
000b45 2020      	.DB  0x20,0x20,0x20,0x20,0x20,0x20,0x20,0x20
000b46 2020
000b47 0c00
000b48 0017
000b49 2000      	.DB  0x20,0x20,0x0,LOW(_HengioQuatKhu3Lan2*2),HIGH(_HengioQuatKhu3Lan2*2),0x0,0x0,0x20
000b4a 4c20
000b4b 6e61
000b4c 3320
000b4d 2020      	.DB  0x20,0x4C,0x61,0x6E,0x20,0x33,0x20,0x20
000b4e 2020
000b4f 2020
000b50 2020
000b51 2020      	.DB  0x20,0x20,0x20,0x20,0x20,0x20,0x20,0x20
000b52 2020
000b53 6c00
000b54 0017
D:\DuAnLon\VuonThongMinh\atmega128\Debug\List\main.asm(1910): warning: .cseg .db misalignment - padding zero byte
000b55 0000      	.DB  0x20,0x20,0x0,LOW(_HengioQuatKhu3Lan3*2),HIGH(_HengioQuatKhu3Lan3*2),0x0,0x0
                 _HengioQuatKhu3Lan1:
000b56 4c0f
000b57 2016
000b58 6548
000b59 206e      	.DB  0xF,LOW(_HengioQuatKhu3*2),HIGH(_HengioQuatKhu3*2),0x20,0x48,0x65,0x6E,0x20
000b5a 6947
000b5b 206f
000b5c 7551
000b5d 7461      	.DB  0x47,0x69,0x6F,0x20,0x51,0x75,0x61,0x74
000b5e 4c20
000b5f 6e61
000b60 3120
000b61 2000      	.DB  0x20,0x4C,0x61,0x6E,0x20,0x31,0x0,0x20
000b62 4720
000b63 6f69
000b64 2020
000b65 2020      	.DB  0x20,0x47,0x69,0x6F,0x20,0x20,0x20,0x20
000b66 2020
000b67 2020
000b68 2020
000b69 2020      	.DB  0x20,0x20,0x20,0x20,0x20,0x20,0x20,0x20
000b6a 2020
000b6b 0000
000b6c 0000
000b6d 2000      	.DB  0x20,0x20,0x0,0x0,0x0,0x0,0x0,0x20
000b6e 5020
000b6f 7568
000b70 2074
000b71 2020      	.DB  0x20,0x50,0x68,0x75,0x74,0x20,0x20,0x20
000b72 2020
000b73 2020
000b74 2020
000b75 2020      	.DB  0x20,0x20,0x20,0x20,0x20,0x20,0x20,0x20
000b76 2020
000b77 0000
000b78 0000
000b79 2000      	.DB  0x20,0x20,0x0,0x0,0x0,0x0,0x0,0x20
000b7a 2020
000b7b 2020
000b7c 4420
000b7d 6c65      	.DB  0x20,0x20,0x20,0x20,0x20,0x44,0x65,0x6C
000b7e 7465
000b7f 2065
000b80 2020
000b81 2020      	.DB  0x65,0x74,0x65,0x20,0x20,0x20,0x20,0x20
000b82 2020
000b83 0000
000b84 5700
D:\DuAnLon\VuonThongMinh\atmega128\Debug\List\main.asm(1923): warning: .cseg .db misalignment - padding zero byte
000b85 0010      	.DB  0x20,0x20,0x0,0x0,0x0,LOW(_ActuatorsDelete),HIGH(_ActuatorsDelete)
                 _HengioQuatKhu3Lan2:
000b86 4c10
000b87 2016
000b88 6548
000b89 206e      	.DB  0x10,LOW(_HengioQuatKhu3*2),HIGH(_HengioQuatKhu3*2),0x20,0x48,0x65,0x6E,0x20
000b8a 6947
000b8b 206f
000b8c 7551
000b8d 7461      	.DB  0x47,0x69,0x6F,0x20,0x51,0x75,0x61,0x74
000b8e 4c20
000b8f 6e61
000b90 3220
000b91 2000      	.DB  0x20,0x4C,0x61,0x6E,0x20,0x32,0x0,0x20
000b92 4720
000b93 6f69
000b94 2020
000b95 2020      	.DB  0x20,0x47,0x69,0x6F,0x20,0x20,0x20,0x20
000b96 2020
000b97 2020
000b98 2020
000b99 2020      	.DB  0x20,0x20,0x20,0x20,0x20,0x20,0x20,0x20
000b9a 2020
000b9b 0000
000b9c 0000
000b9d 2000      	.DB  0x20,0x20,0x0,0x0,0x0,0x0,0x0,0x20
000b9e 5020
000b9f 7568
000ba0 2074
000ba1 2020      	.DB  0x20,0x50,0x68,0x75,0x74,0x20,0x20,0x20
000ba2 2020
000ba3 2020
000ba4 2020
000ba5 2020      	.DB  0x20,0x20,0x20,0x20,0x20,0x20,0x20,0x20
000ba6 2020
000ba7 0000
000ba8 0000
000ba9 2000      	.DB  0x20,0x20,0x0,0x0,0x0,0x0,0x0,0x20
000baa 2020
000bab 2020
000bac 4420
000bad 6c65      	.DB  0x20,0x20,0x20,0x20,0x20,0x44,0x65,0x6C
000bae 7465
000baf 2065
000bb0 2020
000bb1 2020      	.DB  0x65,0x74,0x65,0x20,0x20,0x20,0x20,0x20
000bb2 2020
000bb3 0000
000bb4 5700
D:\DuAnLon\VuonThongMinh\atmega128\Debug\List\main.asm(1936): warning: .cseg .db misalignment - padding zero byte
000bb5 0010      	.DB  0x20,0x20,0x0,0x0,0x0,LOW(_ActuatorsDelete),HIGH(_ActuatorsDelete)
                 _HengioQuatKhu3Lan3:
000bb6 4c11
000bb7 2016
000bb8 6548
000bb9 206e      	.DB  0x11,LOW(_HengioQuatKhu3*2),HIGH(_HengioQuatKhu3*2),0x20,0x48,0x65,0x6E,0x20
000bba 6947
000bbb 206f
000bbc 7551
000bbd 7461      	.DB  0x47,0x69,0x6F,0x20,0x51,0x75,0x61,0x74
000bbe 4c20
000bbf 6e61
000bc0 3320
000bc1 2000      	.DB  0x20,0x4C,0x61,0x6E,0x20,0x33,0x0,0x20
000bc2 4720
000bc3 6f69
000bc4 2020
000bc5 2020      	.DB  0x20,0x47,0x69,0x6F,0x20,0x20,0x20,0x20
000bc6 2020
000bc7 2020
000bc8 2020
000bc9 2020      	.DB  0x20,0x20,0x20,0x20,0x20,0x20,0x20,0x20
000bca 2020
000bcb 0000
000bcc 0000
000bcd 2000      	.DB  0x20,0x20,0x0,0x0,0x0,0x0,0x0,0x20
000bce 5020
000bcf 7568
000bd0 2074
000bd1 2020      	.DB  0x20,0x50,0x68,0x75,0x74,0x20,0x20,0x20
000bd2 2020
000bd3 2020
000bd4 2020
000bd5 2020      	.DB  0x20,0x20,0x20,0x20,0x20,0x20,0x20,0x20
000bd6 2020
000bd7 0000
000bd8 0000
000bd9 2000      	.DB  0x20,0x20,0x0,0x0,0x0,0x0,0x0,0x20
000bda 2020
000bdb 2020
000bdc 4420
000bdd 6c65      	.DB  0x20,0x20,0x20,0x20,0x20,0x44,0x65,0x6C
000bde 7465
000bdf 2065
000be0 2020
000be1 2020      	.DB  0x65,0x74,0x65,0x20,0x20,0x20,0x20,0x20
000be2 2020
000be3 0000
000be4 5700
D:\DuAnLon\VuonThongMinh\atmega128\Debug\List\main.asm(1949): warning: .cseg .db misalignment - padding zero byte
000be5 0010      	.DB  0x20,0x20,0x0,0x0,0x0,LOW(_ActuatorsDelete),HIGH(_ActuatorsDelete)
                 _HengioBomKhu1:
000be6 6c00
000be7 200e
000be8 6548
000be9 206e      	.DB  0x0,LOW(_HengioBom*2),HIGH(_HengioBom*2),0x20,0x48,0x65,0x6E,0x20
000bea 6947
000beb 206f
000bec 6f42
000bed 206d      	.DB  0x47,0x69,0x6F,0x20,0x42,0x6F,0x6D,0x20
000bee 684b
000bef 2075
000bf0 2031
000bf1 2000      	.DB  0x4B,0x68,0x75,0x20,0x31,0x20,0x0,0x20
000bf2 4c20
000bf3 6e61
000bf4 3120
000bf5 2020      	.DB  0x20,0x4C,0x61,0x6E,0x20,0x31,0x20,0x20
000bf6 2020
000bf7 2020
000bf8 2020
000bf9 2020      	.DB  0x20,0x20,0x20,0x20,0x20,0x20,0x20,0x20
000bfa 2020
000bfb 2c00
000bfc 0018
000bfd 2000      	.DB  0x20,0x20,0x0,LOW(_HengioBomKhu1Lan1*2),HIGH(_HengioBomKhu1Lan1*2),0x0,0x0,0x20
000bfe 4c20
000bff 6e61
000c00 3220
000c01 2020      	.DB  0x20,0x4C,0x61,0x6E,0x20,0x32,0x20,0x20
000c02 2020
000c03 2020
000c04 2020
000c05 2020      	.DB  0x20,0x20,0x20,0x20,0x20,0x20,0x20,0x20
000c06 2020
000c07 8c00
000c08 0018
000c09 2000      	.DB  0x20,0x20,0x0,LOW(_HengioBomKhu1Lan2*2),HIGH(_HengioBomKhu1Lan2*2),0x0,0x0,0x20
000c0a 4c20
000c0b 6e61
000c0c 3320
000c0d 2020      	.DB  0x20,0x4C,0x61,0x6E,0x20,0x33,0x20,0x20
000c0e 2020
000c0f 2020
000c10 2020
000c11 2020      	.DB  0x20,0x20,0x20,0x20,0x20,0x20,0x20,0x20
000c12 2020
000c13 ec00
000c14 0018
D:\DuAnLon\VuonThongMinh\atmega128\Debug\List\main.asm(1962): warning: .cseg .db misalignment - padding zero byte
000c15 0000      	.DB  0x20,0x20,0x0,LOW(_HengioBomKhu1Lan3*2),HIGH(_HengioBomKhu1Lan3*2),0x0,0x0
                 _HengioBomKhu1Lan1:
000c16 cc12
000c17 2017
000c18 6548
000c19 206e      	.DB  0x12,LOW(_HengioBomKhu1*2),HIGH(_HengioBomKhu1*2),0x20,0x48,0x65,0x6E,0x20
000c1a 6947
000c1b 206f
000c1c 6f42
000c1d 206d      	.DB  0x47,0x69,0x6F,0x20,0x42,0x6F,0x6D,0x20
000c1e 614c
000c1f 206e
000c20 2031
000c21 2000      	.DB  0x4C,0x61,0x6E,0x20,0x31,0x20,0x0,0x20
000c22 4720
000c23 6f69
000c24 2020
000c25 2020      	.DB  0x20,0x47,0x69,0x6F,0x20,0x20,0x20,0x20
000c26 2020
000c27 2020
000c28 2020
000c29 2020      	.DB  0x20,0x20,0x20,0x20,0x20,0x20,0x20,0x20
000c2a 2020
000c2b 0000
000c2c 0000
000c2d 2000      	.DB  0x20,0x20,0x0,0x0,0x0,0x0,0x0,0x20
000c2e 5020
000c2f 7568
000c30 2074
000c31 2020      	.DB  0x20,0x50,0x68,0x75,0x74,0x20,0x20,0x20
000c32 2020
000c33 2020
000c34 2020
000c35 2020      	.DB  0x20,0x20,0x20,0x20,0x20,0x20,0x20,0x20
000c36 2020
000c37 0000
000c38 0000
000c39 2000      	.DB  0x20,0x20,0x0,0x0,0x0,0x0,0x0,0x20
000c3a 2020
000c3b 2020
000c3c 4420
000c3d 6c65      	.DB  0x20,0x20,0x20,0x20,0x20,0x44,0x65,0x6C
000c3e 7465
000c3f 2065
000c40 2020
000c41 2020      	.DB  0x65,0x74,0x65,0x20,0x20,0x20,0x20,0x20
000c42 2020
000c43 0000
000c44 5700
D:\DuAnLon\VuonThongMinh\atmega128\Debug\List\main.asm(1975): warning: .cseg .db misalignment - padding zero byte
000c45 0010      	.DB  0x20,0x20,0x0,0x0,0x0,LOW(_ActuatorsDelete),HIGH(_ActuatorsDelete)
                 _HengioBomKhu1Lan2:
000c46 cc13
000c47 2017
000c48 6548
000c49 206e      	.DB  0x13,LOW(_HengioBomKhu1*2),HIGH(_HengioBomKhu1*2),0x20,0x48,0x65,0x6E,0x20
000c4a 6947
000c4b 206f
000c4c 6f42
000c4d 206d      	.DB  0x47,0x69,0x6F,0x20,0x42,0x6F,0x6D,0x20
000c4e 614c
000c4f 206e
000c50 2032
000c51 2000      	.DB  0x4C,0x61,0x6E,0x20,0x32,0x20,0x0,0x20
000c52 4720
000c53 6f69
000c54 2020
000c55 2020      	.DB  0x20,0x47,0x69,0x6F,0x20,0x20,0x20,0x20
000c56 2020
000c57 2020
000c58 2020
000c59 2020      	.DB  0x20,0x20,0x20,0x20,0x20,0x20,0x20,0x20
000c5a 2020
000c5b 0000
000c5c 0000
000c5d 2000      	.DB  0x20,0x20,0x0,0x0,0x0,0x0,0x0,0x20
000c5e 5020
000c5f 7568
000c60 2074
000c61 2020      	.DB  0x20,0x50,0x68,0x75,0x74,0x20,0x20,0x20
000c62 2020
000c63 2020
000c64 2020
000c65 2020      	.DB  0x20,0x20,0x20,0x20,0x20,0x20,0x20,0x20
000c66 2020
000c67 0000
000c68 0000
000c69 2000      	.DB  0x20,0x20,0x0,0x0,0x0,0x0,0x0,0x20
000c6a 2020
000c6b 2020
000c6c 4420
000c6d 6c65      	.DB  0x20,0x20,0x20,0x20,0x20,0x44,0x65,0x6C
000c6e 7465
000c6f 2065
000c70 2020
000c71 2020      	.DB  0x65,0x74,0x65,0x20,0x20,0x20,0x20,0x20
000c72 2020
000c73 0000
000c74 5700
D:\DuAnLon\VuonThongMinh\atmega128\Debug\List\main.asm(1988): warning: .cseg .db misalignment - padding zero byte
000c75 0010      	.DB  0x20,0x20,0x0,0x0,0x0,LOW(_ActuatorsDelete),HIGH(_ActuatorsDelete)
                 _HengioBomKhu1Lan3:
000c76 cc14
000c77 2017
000c78 6548
000c79 206e      	.DB  0x14,LOW(_HengioBomKhu1*2),HIGH(_HengioBomKhu1*2),0x20,0x48,0x65,0x6E,0x20
000c7a 6947
000c7b 206f
000c7c 6f42
000c7d 206d      	.DB  0x47,0x69,0x6F,0x20,0x42,0x6F,0x6D,0x20
000c7e 614c
000c7f 206e
000c80 2033
000c81 2000      	.DB  0x4C,0x61,0x6E,0x20,0x33,0x20,0x0,0x20
000c82 4720
000c83 6f69
000c84 2020
000c85 2020      	.DB  0x20,0x47,0x69,0x6F,0x20,0x20,0x20,0x20
000c86 2020
000c87 2020
000c88 2020
000c89 2020      	.DB  0x20,0x20,0x20,0x20,0x20,0x20,0x20,0x20
000c8a 2020
000c8b 0000
000c8c 0000
000c8d 2000      	.DB  0x20,0x20,0x0,0x0,0x0,0x0,0x0,0x20
000c8e 5020
000c8f 7568
000c90 2074
000c91 2020      	.DB  0x20,0x50,0x68,0x75,0x74,0x20,0x20,0x20
000c92 2020
000c93 2020
000c94 2020
000c95 2020      	.DB  0x20,0x20,0x20,0x20,0x20,0x20,0x20,0x20
000c96 2020
000c97 0000
000c98 0000
000c99 2000      	.DB  0x20,0x20,0x0,0x0,0x0,0x0,0x0,0x20
000c9a 2020
000c9b 2020
000c9c 4420
000c9d 6c65      	.DB  0x20,0x20,0x20,0x20,0x20,0x44,0x65,0x6C
000c9e 7465
000c9f 2065
000ca0 2020
000ca1 2020      	.DB  0x65,0x74,0x65,0x20,0x20,0x20,0x20,0x20
000ca2 2020
000ca3 0000
000ca4 5700
D:\DuAnLon\VuonThongMinh\atmega128\Debug\List\main.asm(2001): warning: .cseg .db misalignment - padding zero byte
000ca5 0010      	.DB  0x20,0x20,0x0,0x0,0x0,LOW(_ActuatorsDelete),HIGH(_ActuatorsDelete)
                 _HengioBomKhu2:
000ca6 6c00
000ca7 200e
000ca8 6548
000ca9 206e      	.DB  0x0,LOW(_HengioBom*2),HIGH(_HengioBom*2),0x20,0x48,0x65,0x6E,0x20
000caa 6947
000cab 206f
000cac 6f42
000cad 206d      	.DB  0x47,0x69,0x6F,0x20,0x42,0x6F,0x6D,0x20
000cae 684b
000caf 2075
000cb0 2032
000cb1 2000      	.DB  0x4B,0x68,0x75,0x20,0x32,0x20,0x0,0x20
000cb2 4c20
000cb3 6e61
000cb4 3120
000cb5 2020      	.DB  0x20,0x4C,0x61,0x6E,0x20,0x31,0x20,0x20
000cb6 2020
000cb7 2020
000cb8 2020
000cb9 2020      	.DB  0x20,0x20,0x20,0x20,0x20,0x20,0x20,0x20
000cba 2020
000cbb ac00
000cbc 0019
000cbd 2000      	.DB  0x20,0x20,0x0,LOW(_HengioBomKhu2Lan1*2),HIGH(_HengioBomKhu2Lan1*2),0x0,0x0,0x20
000cbe 4c20
000cbf 6e61
000cc0 3220
000cc1 2020      	.DB  0x20,0x4C,0x61,0x6E,0x20,0x32,0x20,0x20
000cc2 2020
000cc3 2020
000cc4 2020
000cc5 2020      	.DB  0x20,0x20,0x20,0x20,0x20,0x20,0x20,0x20
000cc6 2020
000cc7 0c00
000cc8 001a
000cc9 2000      	.DB  0x20,0x20,0x0,LOW(_HengioBomKhu2Lan2*2),HIGH(_HengioBomKhu2Lan2*2),0x0,0x0,0x20
000cca 4c20
000ccb 6e61
000ccc 3320
000ccd 2020      	.DB  0x20,0x4C,0x61,0x6E,0x20,0x33,0x20,0x20
000cce 2020
000ccf 2020
000cd0 2020
000cd1 2020      	.DB  0x20,0x20,0x20,0x20,0x20,0x20,0x20,0x20
000cd2 2020
000cd3 6c00
000cd4 001a
D:\DuAnLon\VuonThongMinh\atmega128\Debug\List\main.asm(2014): warning: .cseg .db misalignment - padding zero byte
000cd5 0000      	.DB  0x20,0x20,0x0,LOW(_HengioBomKhu2Lan3*2),HIGH(_HengioBomKhu2Lan3*2),0x0,0x0
                 _HengioBomKhu2Lan1:
000cd6 4c15
000cd7 2019
000cd8 6548
000cd9 206e      	.DB  0x15,LOW(_HengioBomKhu2*2),HIGH(_HengioBomKhu2*2),0x20,0x48,0x65,0x6E,0x20
000cda 6947
000cdb 206f
000cdc 6f42
000cdd 206d      	.DB  0x47,0x69,0x6F,0x20,0x42,0x6F,0x6D,0x20
000cde 614c
000cdf 206e
000ce0 2031
000ce1 2000      	.DB  0x4C,0x61,0x6E,0x20,0x31,0x20,0x0,0x20
000ce2 4720
000ce3 6f69
000ce4 2020
000ce5 2020      	.DB  0x20,0x47,0x69,0x6F,0x20,0x20,0x20,0x20
000ce6 2020
000ce7 2020
000ce8 2020
000ce9 2020      	.DB  0x20,0x20,0x20,0x20,0x20,0x20,0x20,0x20
000cea 2020
000ceb 0000
000cec 0000
000ced 2000      	.DB  0x20,0x20,0x0,0x0,0x0,0x0,0x0,0x20
000cee 5020
000cef 7568
000cf0 2074
000cf1 2020      	.DB  0x20,0x50,0x68,0x75,0x74,0x20,0x20,0x20
000cf2 2020
000cf3 2020
000cf4 2020
000cf5 2020      	.DB  0x20,0x20,0x20,0x20,0x20,0x20,0x20,0x20
000cf6 2020
000cf7 0000
000cf8 0000
000cf9 2000      	.DB  0x20,0x20,0x0,0x0,0x0,0x0,0x0,0x20
000cfa 2020
000cfb 2020
000cfc 4420
000cfd 6c65      	.DB  0x20,0x20,0x20,0x20,0x20,0x44,0x65,0x6C
000cfe 7465
000cff 2065
000d00 2020
000d01 2020      	.DB  0x65,0x74,0x65,0x20,0x20,0x20,0x20,0x20
000d02 2020
000d03 0000
000d04 5700
D:\DuAnLon\VuonThongMinh\atmega128\Debug\List\main.asm(2027): warning: .cseg .db misalignment - padding zero byte
000d05 0010      	.DB  0x20,0x20,0x0,0x0,0x0,LOW(_ActuatorsDelete),HIGH(_ActuatorsDelete)
                 _HengioBomKhu2Lan2:
000d06 4c16
000d07 2019
000d08 6548
000d09 206e      	.DB  0x16,LOW(_HengioBomKhu2*2),HIGH(_HengioBomKhu2*2),0x20,0x48,0x65,0x6E,0x20
000d0a 6947
000d0b 206f
000d0c 6f42
000d0d 206d      	.DB  0x47,0x69,0x6F,0x20,0x42,0x6F,0x6D,0x20
000d0e 614c
000d0f 206e
000d10 2032
000d11 2000      	.DB  0x4C,0x61,0x6E,0x20,0x32,0x20,0x0,0x20
000d12 4720
000d13 6f69
000d14 2020
000d15 2020      	.DB  0x20,0x47,0x69,0x6F,0x20,0x20,0x20,0x20
000d16 2020
000d17 2020
000d18 2020
000d19 2020      	.DB  0x20,0x20,0x20,0x20,0x20,0x20,0x20,0x20
000d1a 2020
000d1b 0000
000d1c 0000
000d1d 2000      	.DB  0x20,0x20,0x0,0x0,0x0,0x0,0x0,0x20
000d1e 5020
000d1f 7568
000d20 2074
000d21 2020      	.DB  0x20,0x50,0x68,0x75,0x74,0x20,0x20,0x20
000d22 2020
000d23 2020
000d24 2020
000d25 2020      	.DB  0x20,0x20,0x20,0x20,0x20,0x20,0x20,0x20
000d26 2020
000d27 0000
000d28 0000
000d29 2000      	.DB  0x20,0x20,0x0,0x0,0x0,0x0,0x0,0x20
000d2a 2020
000d2b 2020
000d2c 4420
000d2d 6c65      	.DB  0x20,0x20,0x20,0x20,0x20,0x44,0x65,0x6C
000d2e 7465
000d2f 2065
000d30 2020
000d31 2020      	.DB  0x65,0x74,0x65,0x20,0x20,0x20,0x20,0x20
000d32 2020
000d33 0000
000d34 5700
D:\DuAnLon\VuonThongMinh\atmega128\Debug\List\main.asm(2040): warning: .cseg .db misalignment - padding zero byte
000d35 0010      	.DB  0x20,0x20,0x0,0x0,0x0,LOW(_ActuatorsDelete),HIGH(_ActuatorsDelete)
                 _HengioBomKhu2Lan3:
000d36 4c17
000d37 2019
000d38 6548
000d39 206e      	.DB  0x17,LOW(_HengioBomKhu2*2),HIGH(_HengioBomKhu2*2),0x20,0x48,0x65,0x6E,0x20
000d3a 6947
000d3b 206f
000d3c 6f42
000d3d 206d      	.DB  0x47,0x69,0x6F,0x20,0x42,0x6F,0x6D,0x20
000d3e 614c
000d3f 206e
000d40 2033
000d41 2000      	.DB  0x4C,0x61,0x6E,0x20,0x33,0x20,0x0,0x20
000d42 4720
000d43 6f69
000d44 2020
000d45 2020      	.DB  0x20,0x47,0x69,0x6F,0x20,0x20,0x20,0x20
000d46 2020
000d47 2020
000d48 2020
000d49 2020      	.DB  0x20,0x20,0x20,0x20,0x20,0x20,0x20,0x20
000d4a 2020
000d4b 0000
000d4c 0000
000d4d 2000      	.DB  0x20,0x20,0x0,0x0,0x0,0x0,0x0,0x20
000d4e 5020
000d4f 7568
000d50 2074
000d51 2020      	.DB  0x20,0x50,0x68,0x75,0x74,0x20,0x20,0x20
000d52 2020
000d53 2020
000d54 2020
000d55 2020      	.DB  0x20,0x20,0x20,0x20,0x20,0x20,0x20,0x20
000d56 2020
000d57 0000
000d58 0000
000d59 2000      	.DB  0x20,0x20,0x0,0x0,0x0,0x0,0x0,0x20
000d5a 2020
000d5b 2020
000d5c 4420
000d5d 6c65      	.DB  0x20,0x20,0x20,0x20,0x20,0x44,0x65,0x6C
000d5e 7465
000d5f 2065
000d60 2020
000d61 2020      	.DB  0x65,0x74,0x65,0x20,0x20,0x20,0x20,0x20
000d62 2020
000d63 0000
000d64 5700
D:\DuAnLon\VuonThongMinh\atmega128\Debug\List\main.asm(2053): warning: .cseg .db misalignment - padding zero byte
000d65 0010      	.DB  0x20,0x20,0x0,0x0,0x0,LOW(_ActuatorsDelete),HIGH(_ActuatorsDelete)
                 _HengioBomKhu3:
000d66 6c00
000d67 200e
000d68 6548
000d69 206e      	.DB  0x0,LOW(_HengioBom*2),HIGH(_HengioBom*2),0x20,0x48,0x65,0x6E,0x20
000d6a 6947
000d6b 206f
000d6c 6f42
000d6d 206d      	.DB  0x47,0x69,0x6F,0x20,0x42,0x6F,0x6D,0x20
000d6e 684b
000d6f 2075
000d70 2033
000d71 2000      	.DB  0x4B,0x68,0x75,0x20,0x33,0x20,0x0,0x20
000d72 4c20
000d73 6e61
000d74 3120
000d75 2020      	.DB  0x20,0x4C,0x61,0x6E,0x20,0x31,0x20,0x20
000d76 2020
000d77 2020
000d78 2020
000d79 2020      	.DB  0x20,0x20,0x20,0x20,0x20,0x20,0x20,0x20
000d7a 2020
000d7b 2c00
000d7c 001b
000d7d 2000      	.DB  0x20,0x20,0x0,LOW(_HengioBomKhu3Lan1*2),HIGH(_HengioBomKhu3Lan1*2),0x0,0x0,0x20
000d7e 4c20
000d7f 6e61
000d80 3220
000d81 2020      	.DB  0x20,0x4C,0x61,0x6E,0x20,0x32,0x20,0x20
000d82 2020
000d83 2020
000d84 2020
000d85 2020      	.DB  0x20,0x20,0x20,0x20,0x20,0x20,0x20,0x20
000d86 2020
000d87 8c00
000d88 001b
000d89 2000      	.DB  0x20,0x20,0x0,LOW(_HengioBomKhu3Lan2*2),HIGH(_HengioBomKhu3Lan2*2),0x0,0x0,0x20
000d8a 4c20
000d8b 6e61
000d8c 3320
000d8d 2020      	.DB  0x20,0x4C,0x61,0x6E,0x20,0x33,0x20,0x20
000d8e 2020
000d8f 2020
000d90 2020
000d91 2020      	.DB  0x20,0x20,0x20,0x20,0x20,0x20,0x20,0x20
000d92 2020
000d93 ec00
000d94 001b
D:\DuAnLon\VuonThongMinh\atmega128\Debug\List\main.asm(2066): warning: .cseg .db misalignment - padding zero byte
000d95 0000      	.DB  0x20,0x20,0x0,LOW(_HengioBomKhu3Lan3*2),HIGH(_HengioBomKhu3Lan3*2),0x0,0x0
                 _HengioBomKhu3Lan1:
000d96 cc18
000d97 201a
000d98 6548
000d99 206e      	.DB  0x18,LOW(_HengioBomKhu3*2),HIGH(_HengioBomKhu3*2),0x20,0x48,0x65,0x6E,0x20
000d9a 6947
000d9b 206f
000d9c 6f42
000d9d 206d      	.DB  0x47,0x69,0x6F,0x20,0x42,0x6F,0x6D,0x20
000d9e 614c
000d9f 206e
000da0 2031
000da1 2000      	.DB  0x4C,0x61,0x6E,0x20,0x31,0x20,0x0,0x20
000da2 4720
000da3 6f69
000da4 2020
000da5 2020      	.DB  0x20,0x47,0x69,0x6F,0x20,0x20,0x20,0x20
000da6 2020
000da7 2020
000da8 2020
000da9 2020      	.DB  0x20,0x20,0x20,0x20,0x20,0x20,0x20,0x20
000daa 2020
000dab 0000
000dac 0000
000dad 2000      	.DB  0x20,0x20,0x0,0x0,0x0,0x0,0x0,0x20
000dae 5020
000daf 7568
000db0 2074
000db1 2020      	.DB  0x20,0x50,0x68,0x75,0x74,0x20,0x20,0x20
000db2 2020
000db3 2020
000db4 2020
000db5 2020      	.DB  0x20,0x20,0x20,0x20,0x20,0x20,0x20,0x20
000db6 2020
000db7 0000
000db8 0000
000db9 2000      	.DB  0x20,0x20,0x0,0x0,0x0,0x0,0x0,0x20
000dba 2020
000dbb 2020
000dbc 4420
000dbd 6c65      	.DB  0x20,0x20,0x20,0x20,0x20,0x44,0x65,0x6C
000dbe 7465
000dbf 2065
000dc0 2020
000dc1 2020      	.DB  0x65,0x74,0x65,0x20,0x20,0x20,0x20,0x20
000dc2 2020
000dc3 0000
000dc4 5700
D:\DuAnLon\VuonThongMinh\atmega128\Debug\List\main.asm(2079): warning: .cseg .db misalignment - padding zero byte
000dc5 0010      	.DB  0x20,0x20,0x0,0x0,0x0,LOW(_ActuatorsDelete),HIGH(_ActuatorsDelete)
                 _HengioBomKhu3Lan2:
000dc6 cc19
000dc7 201a
000dc8 6548
000dc9 206e      	.DB  0x19,LOW(_HengioBomKhu3*2),HIGH(_HengioBomKhu3*2),0x20,0x48,0x65,0x6E,0x20
000dca 6947
000dcb 206f
000dcc 6f42
000dcd 206d      	.DB  0x47,0x69,0x6F,0x20,0x42,0x6F,0x6D,0x20
000dce 614c
000dcf 206e
000dd0 2032
000dd1 2000      	.DB  0x4C,0x61,0x6E,0x20,0x32,0x20,0x0,0x20
000dd2 4720
000dd3 6f69
000dd4 2020
000dd5 2020      	.DB  0x20,0x47,0x69,0x6F,0x20,0x20,0x20,0x20
000dd6 2020
000dd7 2020
000dd8 2020
000dd9 2020      	.DB  0x20,0x20,0x20,0x20,0x20,0x20,0x20,0x20
000dda 2020
000ddb 0000
000ddc 0000
000ddd 2000      	.DB  0x20,0x20,0x0,0x0,0x0,0x0,0x0,0x20
000dde 5020
000ddf 7568
000de0 2074
000de1 2020      	.DB  0x20,0x50,0x68,0x75,0x74,0x20,0x20,0x20
000de2 2020
000de3 2020
000de4 2020
000de5 2020      	.DB  0x20,0x20,0x20,0x20,0x20,0x20,0x20,0x20
000de6 2020
000de7 0000
000de8 0000
000de9 2000      	.DB  0x20,0x20,0x0,0x0,0x0,0x0,0x0,0x20
000dea 2020
000deb 2020
000dec 4420
000ded 6c65      	.DB  0x20,0x20,0x20,0x20,0x20,0x44,0x65,0x6C
000dee 7465
000def 2065
000df0 2020
000df1 2020      	.DB  0x65,0x74,0x65,0x20,0x20,0x20,0x20,0x20
000df2 2020
000df3 0000
000df4 5700
D:\DuAnLon\VuonThongMinh\atmega128\Debug\List\main.asm(2092): warning: .cseg .db misalignment - padding zero byte
000df5 0010      	.DB  0x20,0x20,0x0,0x0,0x0,LOW(_ActuatorsDelete),HIGH(_ActuatorsDelete)
                 _HengioBomKhu3Lan3:
000df6 cc1a
000df7 201a
000df8 6548
000df9 206e      	.DB  0x1A,LOW(_HengioBomKhu3*2),HIGH(_HengioBomKhu3*2),0x20,0x48,0x65,0x6E,0x20
000dfa 6947
000dfb 206f
000dfc 6f42
000dfd 206d      	.DB  0x47,0x69,0x6F,0x20,0x42,0x6F,0x6D,0x20
000dfe 614c
000dff 206e
000e00 2033
000e01 2000      	.DB  0x4C,0x61,0x6E,0x20,0x33,0x20,0x0,0x20
000e02 4720
000e03 6f69
000e04 2020
000e05 2020      	.DB  0x20,0x47,0x69,0x6F,0x20,0x20,0x20,0x20
000e06 2020
000e07 2020
000e08 2020
000e09 2020      	.DB  0x20,0x20,0x20,0x20,0x20,0x20,0x20,0x20
000e0a 2020
000e0b 0000
000e0c 0000
000e0d 2000      	.DB  0x20,0x20,0x0,0x0,0x0,0x0,0x0,0x20
000e0e 5020
000e0f 7568
000e10 2074
000e11 2020      	.DB  0x20,0x50,0x68,0x75,0x74,0x20,0x20,0x20
000e12 2020
000e13 2020
000e14 2020
000e15 2020      	.DB  0x20,0x20,0x20,0x20,0x20,0x20,0x20,0x20
000e16 2020
000e17 0000
000e18 0000
000e19 2000      	.DB  0x20,0x20,0x0,0x0,0x0,0x0,0x0,0x20
000e1a 2020
000e1b 2020
000e1c 4420
000e1d 6c65      	.DB  0x20,0x20,0x20,0x20,0x20,0x44,0x65,0x6C
000e1e 7465
000e1f 2065
000e20 2020
000e21 2020      	.DB  0x65,0x74,0x65,0x20,0x20,0x20,0x20,0x20
000e22 2020
000e23 0000
000e24 5700
D:\DuAnLon\VuonThongMinh\atmega128\Debug\List\main.asm(2105): warning: .cseg .db misalignment - padding zero byte
000e25 0010      	.DB  0x20,0x20,0x0,0x0,0x0,LOW(_ActuatorsDelete),HIGH(_ActuatorsDelete)
                 _Auto:
000e26 ac00
000e27 2001
000e28 2020
000e29 4120      	.DB  0x0,LOW(_SettingMenu*2),HIGH(_SettingMenu*2),0x20,0x20,0x20,0x20,0x41
000e2a 7475
000e2b 206f
000e2c 2020
000e2d 2020      	.DB  0x75,0x74,0x6F,0x20,0x20,0x20,0x20,0x20
000e2e 2020
000e2f 2020
000e30 2020
000e31 2000      	.DB  0x20,0x20,0x20,0x20,0x20,0x20,0x0,0x20
000e32 4120
000e33 7475
000e34 206f
000e35 6544      	.DB  0x20,0x41,0x75,0x74,0x6F,0x20,0x44,0x65
000e36 206e
000e37 2020
000e38 2020
000e39 2020      	.DB  0x6E,0x20,0x20,0x20,0x20,0x20,0x20,0x20
000e3a 2020
000e3b ac00
000e3c 001c
000e3d 2000      	.DB  0x20,0x20,0x0,LOW(_AutoDen*2),HIGH(_AutoDen*2),0x0,0x0,0x20
000e3e 4120
000e3f 7475
000e40 206f
000e41 7551      	.DB  0x20,0x41,0x75,0x74,0x6F,0x20,0x51,0x75
000e42 7461
000e43 2020
000e44 2020
000e45 2020      	.DB  0x61,0x74,0x20,0x20,0x20,0x20,0x20,0x20
000e46 2020
000e47 0c00
000e48 001d
000e49 2000      	.DB  0x20,0x20,0x0,LOW(_AutoQuat*2),HIGH(_AutoQuat*2),0x0,0x0,0x20
000e4a 4120
000e4b 7475
000e4c 206f
000e4d 6f42      	.DB  0x20,0x41,0x75,0x74,0x6F,0x20,0x42,0x6F
000e4e 206d
000e4f 2020
000e50 2020
000e51 2020      	.DB  0x6D,0x20,0x20,0x20,0x20,0x20,0x20,0x20
000e52 2020
000e53 6c00
000e54 001d
D:\DuAnLon\VuonThongMinh\atmega128\Debug\List\main.asm(2118): warning: .cseg .db misalignment - padding zero byte
000e55 0000      	.DB  0x20,0x20,0x0,LOW(_AutoBom*2),HIGH(_AutoBom*2),0x0,0x0
                 _AutoDen:
000e56 4c15
000e57 201c
000e58 2020
000e59 4120      	.DB  0x15,LOW(_Auto*2),HIGH(_Auto*2),0x20,0x20,0x20,0x20,0x41
000e5a 7475
000e5b 206f
000e5c 6544
000e5d 206e      	.DB  0x75,0x74,0x6F,0x20,0x44,0x65,0x6E,0x20
000e5e 2020
000e5f 2020
000e60 2020
000e61 2000      	.DB  0x20,0x20,0x20,0x20,0x20,0x20,0x0,0x20
000e62 4f20
000e63 204e
000e64 2020
000e65 2020      	.DB  0x20,0x4F,0x4E,0x20,0x20,0x20,0x20,0x20
000e66 2020
000e67 2020
000e68 2020
000e69 2020      	.DB  0x20,0x20,0x20,0x20,0x20,0x20,0x20,0x20
000e6a 2020
000e6b 0000
000e6c 3700
000e6d 2011      	.DB  0x20,0x20,0x0,0x0,0x0,LOW(_AutoON),HIGH(_AutoON),0x20
000e6e 4f20
000e6f 4646
000e70 2020
000e71 2020      	.DB  0x20,0x4F,0x46,0x46,0x20,0x20,0x20,0x20
000e72 2020
000e73 2020
000e74 2020
000e75 2020      	.DB  0x20,0x20,0x20,0x20,0x20,0x20,0x20,0x20
000e76 2020
000e77 0000
000e78 9700
000e79 2011      	.DB  0x20,0x20,0x0,0x0,0x0,LOW(_AutoOFF),HIGH(_AutoOFF),0x20
000e7a 5420
000e7b 6172
000e7c 676e
000e7d 5420      	.DB  0x20,0x54,0x72,0x61,0x6E,0x67,0x20,0x54
000e7e 6168
000e7f 2069
000e80 2020
000e81 2020      	.DB  0x68,0x61,0x69,0x20,0x20,0x20,0x20,0x20
000e82 2020
000e83 0000
000e84 0000
D:\DuAnLon\VuonThongMinh\atmega128\Debug\List\main.asm(2131): warning: .cseg .db misalignment - padding zero byte
000e85 0000      	.DB  0x20,0x20,0x0,0x0,0x0,0x0,0x0
                 _AutoQuat:
000e86 4c16
000e87 201c
000e88 2020
000e89 4120      	.DB  0x16,LOW(_Auto*2),HIGH(_Auto*2),0x20,0x20,0x20,0x20,0x41
000e8a 7475
000e8b 206f
000e8c 7551
000e8d 7461      	.DB  0x75,0x74,0x6F,0x20,0x51,0x75,0x61,0x74
000e8e 2020
000e8f 2020
000e90 2020
000e91 2000      	.DB  0x20,0x20,0x20,0x20,0x20,0x20,0x0,0x20
000e92 4f20
000e93 204e
000e94 2020
000e95 2020      	.DB  0x20,0x4F,0x4E,0x20,0x20,0x20,0x20,0x20
000e96 2020
000e97 2020
000e98 2020
000e99 2020      	.DB  0x20,0x20,0x20,0x20,0x20,0x20,0x20,0x20
000e9a 2020
000e9b 0000
000e9c 3700
000e9d 2011      	.DB  0x20,0x20,0x0,0x0,0x0,LOW(_AutoON),HIGH(_AutoON),0x20
000e9e 4f20
000e9f 4646
000ea0 2020
000ea1 2020      	.DB  0x20,0x4F,0x46,0x46,0x20,0x20,0x20,0x20
000ea2 2020
000ea3 2020
000ea4 2020
000ea5 2020      	.DB  0x20,0x20,0x20,0x20,0x20,0x20,0x20,0x20
000ea6 2020
000ea7 0000
000ea8 9700
000ea9 2011      	.DB  0x20,0x20,0x0,0x0,0x0,LOW(_AutoOFF),HIGH(_AutoOFF),0x20
000eaa 5420
000eab 6172
000eac 676e
000ead 5420      	.DB  0x20,0x54,0x72,0x61,0x6E,0x67,0x20,0x54
000eae 6168
000eaf 2069
000eb0 2020
000eb1 2020      	.DB  0x68,0x61,0x69,0x20,0x20,0x20,0x20,0x20
000eb2 2020
000eb3 0000
000eb4 0000
D:\DuAnLon\VuonThongMinh\atmega128\Debug\List\main.asm(2144): warning: .cseg .db misalignment - padding zero byte
000eb5 0000      	.DB  0x20,0x20,0x0,0x0,0x0,0x0,0x0
                 _AutoBom:
000eb6 4c17
000eb7 201c
000eb8 2020
000eb9 4120      	.DB  0x17,LOW(_Auto*2),HIGH(_Auto*2),0x20,0x20,0x20,0x20,0x41
000eba 7475
000ebb 206f
000ebc 6f42
000ebd 206d      	.DB  0x75,0x74,0x6F,0x20,0x42,0x6F,0x6D,0x20
000ebe 2020
000ebf 2020
000ec0 2020
000ec1 2000      	.DB  0x20,0x20,0x20,0x20,0x20,0x20,0x0,0x20
000ec2 4f20
000ec3 204e
000ec4 2020
000ec5 2020      	.DB  0x20,0x4F,0x4E,0x20,0x20,0x20,0x20,0x20
000ec6 2020
000ec7 2020
000ec8 2020
000ec9 2020      	.DB  0x20,0x20,0x20,0x20,0x20,0x20,0x20,0x20
000eca 2020
000ecb 0000
000ecc 3700
000ecd 2011      	.DB  0x20,0x20,0x0,0x0,0x0,LOW(_AutoON),HIGH(_AutoON),0x20
000ece 4f20
000ecf 4646
000ed0 2020
000ed1 2020      	.DB  0x20,0x4F,0x46,0x46,0x20,0x20,0x20,0x20
000ed2 2020
000ed3 2020
000ed4 2020
000ed5 2020      	.DB  0x20,0x20,0x20,0x20,0x20,0x20,0x20,0x20
000ed6 2020
000ed7 0000
000ed8 9700
000ed9 2011      	.DB  0x20,0x20,0x0,0x0,0x0,LOW(_AutoOFF),HIGH(_AutoOFF),0x20
000eda 5420
000edb 6172
000edc 676e
000edd 5420      	.DB  0x20,0x54,0x72,0x61,0x6E,0x67,0x20,0x54
000ede 6168
000edf 2069
000ee0 2020
000ee1 2020      	.DB  0x68,0x61,0x69,0x20,0x20,0x20,0x20,0x20
000ee2 2020
000ee3 0000
000ee4 0000
D:\DuAnLon\VuonThongMinh\atmega128\Debug\List\main.asm(2157): warning: .cseg .db misalignment - padding zero byte
000ee5 0000      	.DB  0x20,0x20,0x0,0x0,0x0,0x0,0x0
                 _DongBo:
000ee6 ac00
000ee7 2001
000ee8 2020
000ee9 4420      	.DB  0x0,LOW(_SettingMenu*2),HIGH(_SettingMenu*2),0x20,0x20,0x20,0x20,0x44
000eea 6e6f
000eeb 2067
000eec 6f42
000eed 2020      	.DB  0x6F,0x6E,0x67,0x20,0x42,0x6F,0x20,0x20
000eee 2020
000eef 2020
000ef0 2020
000ef1 2000      	.DB  0x20,0x20,0x20,0x20,0x20,0x20,0x0,0x20
000ef2 4420
000ef3 6e6f
000ef4 2067
000ef5 6f42      	.DB  0x20,0x44,0x6F,0x6E,0x67,0x20,0x42,0x6F
000ef6 5420
000ef7 6968
000ef8 7465
000ef9 4220      	.DB  0x20,0x54,0x68,0x69,0x65,0x74,0x20,0x42
000efa 2069
000efb 0000
000efc 2300
000efd 2011      	.DB  0x69,0x20,0x0,0x0,0x0,LOW(_ActuatorsDongBoThietBi),HIGH(_ActuatorsDongBoThietBi),0x20
000efe 4420
000eff 6e6f
000f00 2067
000f01 6f42      	.DB  0x20,0x44,0x6F,0x6E,0x67,0x20,0x42,0x6F
000f02 4820
000f03 6e65
000f04 4720
000f05 6f69      	.DB  0x20,0x48,0x65,0x6E,0x20,0x47,0x69,0x6F
000f06 2020
000f07 0000
000f08 2d00
000f09 2011      	.DB  0x20,0x20,0x0,0x0,0x0,LOW(_ActuatorsDongBoHenGio),HIGH(_ActuatorsDongBoHenGio),0x20
000f0a 4820
000f0b 6f75
000f0c 676e
000f0d 4420      	.DB  0x20,0x48,0x75,0x6F,0x6E,0x67,0x20,0x44
000f0e 6e61
000f0f 4420
000f10 6e6f
000f11 2067      	.DB  0x61,0x6E,0x20,0x44,0x6F,0x6E,0x67,0x20
000f12 6f42
000f13 2c00
000f14 001e
D:\DuAnLon\VuonThongMinh\atmega128\Debug\List\main.asm(2170): warning: .cseg .db misalignment - padding zero byte
000f15 0000      	.DB  0x42,0x6F,0x0,LOW(_HuongDanDongBo*2),HIGH(_HuongDanDongBo*2),0x0,0x0
                 _HuongDanDongBo:
000f16 cc00
000f17 201d
000f18 4820
000f19 6f75      	.DB  0x0,LOW(_DongBo*2),HIGH(_DongBo*2),0x20,0x20,0x48,0x75,0x6F
000f1a 676e
000f1b 4420
000f1c 6e61
000f1d 4420      	.DB  0x6E,0x67,0x20,0x44,0x61,0x6E,0x20,0x44
000f1e 6e6f
000f1f 2067
000f20 6f42
000f21 2000      	.DB  0x6F,0x6E,0x67,0x20,0x42,0x6F,0x0,0x20
000f22 4420
000f23 6e65
000f24 4420
000f25 6e6f      	.DB  0x20,0x44,0x65,0x6E,0x20,0x44,0x6F,0x6E
000f26 2067
000f27 6f42
000f28 5420
000f29 7461      	.DB  0x67,0x20,0x42,0x6F,0x20,0x54,0x61,0x74
000f2a 2020
000f2b 0000
000f2c 0000
000f2d 2000      	.DB  0x20,0x20,0x0,0x0,0x0,0x0,0x0,0x20
000f2e 6c20
000f2f 2061
000f30 6f44
000f31 676e      	.DB  0x20,0x6C,0x61,0x20,0x44,0x6F,0x6E,0x67
000f32 4220
000f33 206f
000f34 6f58
000f35 676e      	.DB  0x20,0x42,0x6F,0x20,0x58,0x6F,0x6E,0x67
000f36 2020
000f37 0000
000f38 0000
000f39 2000      	.DB  0x20,0x20,0x0,0x0,0x0,0x0,0x0,0x20
000f3a 2020
000f3b 2020
000f3c 2020
000f3d 2020      	.DB  0x20,0x20,0x20,0x20,0x20,0x20,0x20,0x20
000f3e 2020
000f3f 2020
000f40 2020
000f41 2020      	.DB  0x20,0x20,0x20,0x20,0x20,0x20,0x20,0x20
000f42 2020
000f43 cc00
000f44 001d
D:\DuAnLon\VuonThongMinh\atmega128\Debug\List\main.asm(2183): warning: .cseg .db misalignment - padding zero byte
000f45 0000      	.DB  0x20,0x20,0x0,LOW(_DongBo*2),HIGH(_DongBo*2),0x0,0x0
                 _tbl10_G100:
000f46 2710
000f47 03e8
000f48 0064
000f49 000a      	.DB  0x10,0x27,0xE8,0x3,0x64,0x0,0xA,0x0
000f4a 0001      	.DB  0x1,0x0
                 _tbl16_G100:
000f4b 1000
000f4c 0100
000f4d 0010
000f4e 0001      	.DB  0x0,0x10,0x0,0x1,0x10,0x0,0x1,0x0
                 
                 ;GLOBAL REGISTER VARIABLES INITIALIZATION
                 __REG_VARS:
000f4f 0000
000f50 0000      	.DB  0x0,0x0,0x0,0x0
000f51 0000
000f52 0000      	.DB  0x0,0x0,0x0,0x0
000f53 0000      	.DB  0x0,0x0
                 
                 _0x61:
D:\DuAnLon\VuonThongMinh\atmega128\Debug\List\main.asm(2197): warning: .cseg .db misalignment - padding zero byte
000f54 0037      	.DB  0x37
                 _0x62:
D:\DuAnLon\VuonThongMinh\atmega128\Debug\List\main.asm(2199): warning: .cseg .db misalignment - padding zero byte
000f55 0001      	.DB  0x1
                 _0x0:
000f56 227b
000f57 7974
000f58 6570
000f59 3a22      	.DB  0x7B,0x22,0x74,0x79,0x70,0x65,0x22,0x3A
000f5a 6425
000f5b 222c
000f5c 6469
000f5d 3a22      	.DB  0x25,0x64,0x2C,0x22,0x69,0x64,0x22,0x3A
000f5e 6425
000f5f 222c
000f60 7473
000f61 7461      	.DB  0x25,0x64,0x2C,0x22,0x73,0x74,0x61,0x74
000f62 7375
000f63 3a22
000f64 6425
000f65 0d7d      	.DB  0x75,0x73,0x22,0x3A,0x25,0x64,0x7D,0xD
000f66 000a
000f67 227b
000f68 7974
000f69 6570      	.DB  0xA,0x0,0x7B,0x22,0x74,0x79,0x70,0x65
000f6a 3a22
000f6b 6425
000f6c 0d7d
000f6d 000a      	.DB  0x22,0x3A,0x25,0x64,0x7D,0xD,0xA,0x0
000f6e 227b
000f6f 7974
000f70 6570
000f71 3a22      	.DB  0x7B,0x22,0x74,0x79,0x70,0x65,0x22,0x3A
000f72 6425
000f73 222c
000f74 7473
000f75 7461      	.DB  0x25,0x64,0x2C,0x22,0x73,0x74,0x61,0x74
000f76 7375
000f77 3a22
000f78 6425
000f79 0d7d      	.DB  0x75,0x73,0x22,0x3A,0x25,0x64,0x7D,0xD
000f7a 000a
000f7b 227b
000f7c 7974
000f7d 6570      	.DB  0xA,0x0,0x7B,0x22,0x74,0x79,0x70,0x65
000f7e 3a22
000f7f 6425
000f80 222c
000f81 6469      	.DB  0x22,0x3A,0x25,0x64,0x2C,0x22,0x69,0x64
000f82 3a22
000f83 6425
000f84 222c
000f85 6967      	.DB  0x22,0x3A,0x25,0x64,0x2C,0x22,0x67,0x69
000f86 226f
000f87 253a
000f88 2c64
000f89 7022      	.DB  0x6F,0x22,0x3A,0x25,0x64,0x2C,0x22,0x70
000f8a 7568
000f8b 2274
000f8c 253a
000f8d 7d64      	.DB  0x68,0x75,0x74,0x22,0x3A,0x25,0x64,0x7D
000f8e 0a0d
000f8f 7b00
000f90 7422
000f91 7079      	.DB  0xD,0xA,0x0,0x7B,0x22,0x74,0x79,0x70
000f92 2265
000f93 253a
000f94 2c64
000f95 6922      	.DB  0x65,0x22,0x3A,0x25,0x64,0x2C,0x22,0x69
000f96 2264
000f97 253a
000f98 7d64
000f99 0a0d      	.DB  0x64,0x22,0x3A,0x25,0x64,0x7D,0xD,0xA
000f9a 2000
000f9b 4e4f
000f9c 2020
000f9d 3a48      	.DB  0x0,0x20,0x4F,0x4E,0x20,0x20,0x48,0x3A
000f9e 6425
000f9f 202c
000fa0 3a4d
000fa1 6425      	.DB  0x25,0x64,0x2C,0x20,0x4D,0x3A,0x25,0x64
000fa2 2020
000fa3 2020
000fa4 2000
000fa5 464f      	.DB  0x20,0x20,0x20,0x20,0x0,0x20,0x4F,0x46
000fa6 2046
000fa7 3a48
000fa8 6425
000fa9 202c      	.DB  0x46,0x20,0x48,0x3A,0x25,0x64,0x2C,0x20
000faa 3a4d
000fab 6425
000fac 2020
000fad 2020      	.DB  0x4D,0x3A,0x25,0x64,0x20,0x20,0x20,0x20
000fae 2000
000faf 5420
000fb0 6172
000fb1 676e      	.DB  0x0,0x20,0x20,0x54,0x72,0x61,0x6E,0x67
000fb2 5420
000fb3 6168
000fb4 3a69
000fb5 4f20      	.DB  0x20,0x54,0x68,0x61,0x69,0x3A,0x20,0x4F
000fb6 4646
000fb7 2020
000fb8 2000
000fb9 5420      	.DB  0x46,0x46,0x20,0x20,0x0,0x20,0x20,0x54
000fba 6172
000fbb 676e
000fbc 5420
000fbd 6168      	.DB  0x72,0x61,0x6E,0x67,0x20,0x54,0x68,0x61
000fbe 3a69
000fbf 4f20
000fc0 204e
000fc1 2020      	.DB  0x69,0x3A,0x20,0x4F,0x4E,0x20,0x20,0x20
000fc2 3e00
000fc3 2000
000fc4 5420
000fc5 6d69      	.DB  0x0,0x3E,0x0,0x20,0x20,0x54,0x69,0x6D
000fc6 3a65
000fc7 2520
000fc8 6432
000fc9 253a      	.DB  0x65,0x3A,0x20,0x25,0x32,0x64,0x3A,0x25
000fca 3230
000fcb 3a64
000fcc 3025
000fcd 6432      	.DB  0x30,0x32,0x64,0x3A,0x25,0x30,0x32,0x64
000fce 2020
000fcf 0020
000fd0 5420
000fd1 7568      	.DB  0x20,0x20,0x20,0x0,0x20,0x54,0x68,0x75
000fd2 2520
000fd3 2c64
000fd4 3225
000fd5 2f64      	.DB  0x20,0x25,0x64,0x2C,0x25,0x32,0x64,0x2F
000fd6 3025
000fd7 6432
000fd8 252f
000fd9 2064      	.DB  0x25,0x30,0x32,0x64,0x2F,0x25,0x64,0x20
000fda 2020
000fdb 2000
000fdc 3a54
000fdd 2520      	.DB  0x20,0x20,0x0,0x20,0x54,0x3A,0x20,0x25
000fde 2564
000fdf 2e64
000fe0 2030
000fe1 2043      	.DB  0x64,0x25,0x64,0x2E,0x30,0x20,0x43,0x20
000fe2 4820
000fe3 203a
000fe4 6425
000fe5 252e      	.DB  0x20,0x48,0x3A,0x20,0x25,0x64,0x2E,0x25
000fe6 2064
000fe7 2000
000fe8 4144
000fe9 3a44      	.DB  0x64,0x20,0x0,0x20,0x44,0x41,0x44,0x3A
000fea 6425
000feb 2c20
000fec 484b
000fed 4e4f      	.DB  0x25,0x64,0x20,0x2C,0x4B,0x48,0x4F,0x4E
000fee 2047
000fef 554d
000ff0 2041
000ff1 2000      	.DB  0x47,0x20,0x4D,0x55,0x41,0x20,0x0,0x20
000ff2 4144
000ff3 3a44
000ff4 6425
000ff5 2c20      	.DB  0x44,0x41,0x44,0x3A,0x25,0x64,0x20,0x2C
000ff6 4d20
000ff7 4155
000ff8 2020
000ff9 2020      	.DB  0x20,0x4D,0x55,0x41,0x20,0x20,0x20,0x20
000ffa 2020
000ffb 7b00
000ffc 7422
000ffd 7079      	.DB  0x20,0x20,0x0,0x7B,0x22,0x74,0x79,0x70
000ffe 2265
000fff 253a
001000 2c64
001001 7422      	.DB  0x65,0x22,0x3A,0x25,0x64,0x2C,0x22,0x74
001002 6d65
001003 2270
001004 253a
001005 2c64      	.DB  0x65,0x6D,0x70,0x22,0x3A,0x25,0x64,0x2C
001006 6822
001007 6d75
001008 2269
001009 253a      	.DB  0x22,0x68,0x75,0x6D,0x69,0x22,0x3A,0x25
00100a 2c64
00100b 6422
00100c 6461
00100d 3a22      	.DB  0x64,0x2C,0x22,0x64,0x61,0x64,0x22,0x3A
00100e 6425
00100f 222c
001010 6263
001011 756d      	.DB  0x25,0x64,0x2C,0x22,0x63,0x62,0x6D,0x75
001012 2261
001013 253a
001014 7d64
001015 0a0d      	.DB  0x61,0x22,0x3A,0x25,0x64,0x7D,0xD,0xA
D:\DuAnLon\VuonThongMinh\atmega128\Debug\List\main.asm(2249): warning: .cseg .db misalignment - padding zero byte
001016 0000      	.DB  0x0
                 
                 __GLOBAL_INI_TBL:
001017 000a      	.DW  0x0A
001018 0004      	.DW  0x04
001019 1e9e      	.DW  __REG_VARS*2
                 
00101a 0001      	.DW  0x01
00101b 071f      	.DW  _DoAmDat
00101c 1ea8      	.DW  _0x61*2
                 
00101d 0001      	.DW  0x01
00101e 0720      	.DW  _CamBienMua
00101f 1eaa      	.DW  _0x62*2
                 
001020 0014      	.DW  0x14
001021 0500      	.DW  _0x10B
001022 1f5d      	.DW  _0x0*2+177
                 
001023 0014      	.DW  0x14
001024 0514      	.DW  _0x10B+20
001025 1f71      	.DW  _0x0*2+197
                 
                 _0xFFFFFFFF:
001026 0000      	.DW  0
                 
                 #define __GLOBAL_INI_TBL_PRESENT 1
                 
                 __RESET:
001027 94f8      	CLI
001028 27ee      	CLR  R30
001029 bbec      	OUT  EECR,R30
                 
                 ;INTERRUPT VECTORS ARE PLACED
                 ;AT THE START OF FLASH
00102a e0f1      	LDI  R31,1
00102b bff5      	OUT  MCUCR,R31
00102c bfe5      	OUT  MCUCR,R30
00102d 93e0 006c 	STS  XMCRB,R30
                 
                 ;CLEAR R2-R14
00102f e08d      	LDI  R24,(14-2)+1
001030 e0a2      	LDI  R26,2
001031 27bb      	CLR  R27
                 __CLEAR_REG:
001032 93ed      	ST   X+,R30
001033 958a      	DEC  R24
001034 f7e9      	BRNE __CLEAR_REG
                 
                 ;CLEAR SRAM
001035 e080      	LDI  R24,LOW(__CLEAR_SRAM_SIZE)
001036 e190      	LDI  R25,HIGH(__CLEAR_SRAM_SIZE)
001037 e0a0      	LDI  R26,LOW(__SRAM_START)
001038 e0b1      	LDI  R27,HIGH(__SRAM_START)
                 __CLEAR_SRAM:
001039 93ed      	ST   X+,R30
00103a 9701      	SBIW R24,1
00103b f7e9      	BRNE __CLEAR_SRAM
                 
                 ;GLOBAL VARIABLES INITIALIZATION
00103c e2ee      	LDI  R30,LOW(__GLOBAL_INI_TBL*2)
00103d e2f0      	LDI  R31,HIGH(__GLOBAL_INI_TBL*2)
                 __GLOBAL_INI_NEXT:
00103e 9185      	LPM  R24,Z+
00103f 9195      	LPM  R25,Z+
001040 9700      	SBIW R24,0
001041 f061      	BREQ __GLOBAL_INI_END
001042 91a5      	LPM  R26,Z+
001043 91b5      	LPM  R27,Z+
001044 9005      	LPM  R0,Z+
001045 9015      	LPM  R1,Z+
001046 01bf      	MOVW R22,R30
001047 01f0      	MOVW R30,R0
                 __GLOBAL_INI_LOOP:
001048 9005      	LPM  R0,Z+
001049 920d      	ST   X+,R0
00104a 9701      	SBIW R24,1
00104b f7e1      	BRNE __GLOBAL_INI_LOOP
00104c 01fb      	MOVW R30,R22
00104d cff0      	RJMP __GLOBAL_INI_NEXT
                 __GLOBAL_INI_END:
                 
00104e bf8b      	OUT  RAMPZ,R24
                 
                 ;HARDWARE STACK POINTER INITIALIZATION
00104f efef      	LDI  R30,LOW(__SRAM_END-__HEAP_SIZE)
001050 bfed      	OUT  SPL,R30
001051 e1e0      	LDI  R30,HIGH(__SRAM_END-__HEAP_SIZE)
001052 bfee      	OUT  SPH,R30
                 
                 ;DATA STACK POINTER INITIALIZATION
001053 e0c0      	LDI  R28,LOW(__SRAM_START+__DSTACK_SIZE)
001054 e0d5      	LDI  R29,HIGH(__SRAM_START+__DSTACK_SIZE)
                 
001055 940c 1448 	JMP  _main
                 
                 	.ESEG
                 	.ORG 0
                 
                 	.DSEG
                 	.ORG 0x500
                 
                 	.CSEG
                 ;#include "main.h"
                 	#ifndef __SLEEP_DEFINED__
                 	#define __SLEEP_DEFINED__
                 	.EQU __se_bit=0x20
                 	.EQU __sm_mask=0x1C
                 	.EQU __sm_powerdown=0x10
                 	.EQU __sm_powersave=0x18
                 	.EQU __sm_standby=0x14
                 	.EQU __sm_ext_standby=0x1C
                 	.EQU __sm_adc_noise_red=0x08
                 	.SET power_ctrl_reg=mcucr
                 	#endif
                 ;#include "./lib/port.h"
                 ;#include "./lib/userdef.h"
                 ;#include "./lib/menu.h"
                 
                 	.CSEG
                 _ActuatorsDelete:
                 ; .FSTART _ActuatorsDelete
001057 9508      	RET
                 ; .FEND
                 _ActuatorsActivation:
                 ; .FSTART _ActuatorsActivation
001058 93aa      	ST   -Y,R26
                 ;	Device -> Y+1
                 ;	Status -> Y+0
001059 940e 1dce 	CALL SUBOPT_0x0
00105b 81ef      	LDD  R30,Y+7
00105c 940e 1dd9 	CALL SUBOPT_0x1
00105e 85ea      	LDD  R30,Y+10
00105f 940e 1dd9 	CALL SUBOPT_0x1
001061 940e 1ddf 	CALL SUBOPT_0x2
001063 81e9      	LDD  R30,Y+1
001064 940e 1de4 	CALL SUBOPT_0x3
001066 f421      	BRNE _0x6
001067 81e8      	LD   R30,Y
001068 940e 1de9 	CALL SUBOPT_0x4
00106a c0ab      	RJMP _0x5
                 _0x6:
00106b 9730      	SBIW R30,0
00106c f429      	BRNE _0x7
00106d 940e 1df2 	CALL SUBOPT_0x5
00106f 940e 1df7 	CALL SUBOPT_0x6
001071 c0a4      	RJMP _0x5
                 _0x7:
001072 30e2      	CPI  R30,LOW(0x2)
001073 e0a0      	LDI  R26,HIGH(0x2)
001074 07fa      	CPC  R31,R26
001075 f409      	BRNE _0x8
001076 c09f      	RJMP _0x5
                 _0x8:
001077 30e3      	CPI  R30,LOW(0x3)
001078 e0a0      	LDI  R26,HIGH(0x3)
001079 07fa      	CPC  R31,R26
00107a f409      	BRNE _0x9
00107b c09a      	RJMP _0x5
                 _0x9:
00107c 30e4      	CPI  R30,LOW(0x4)
00107d e0a0      	LDI  R26,HIGH(0x4)
00107e 07fa      	CPC  R31,R26
00107f f421      	BRNE _0xA
001080 81e8      	LD   R30,Y
001081 940e 1dfe 	CALL SUBOPT_0x7
001083 c092      	RJMP _0x5
                 _0xA:
001084 30e5      	CPI  R30,LOW(0x5)
001085 e0a0      	LDI  R26,HIGH(0x5)
001086 07fa      	CPC  R31,R26
001087 f429      	BRNE _0xB
001088 940e 1df2 	CALL SUBOPT_0x5
00108a 940e 1e07 	CALL SUBOPT_0x8
00108c c089      	RJMP _0x5
                 _0xB:
00108d 30e6      	CPI  R30,LOW(0x6)
00108e e0a0      	LDI  R26,HIGH(0x6)
00108f 07fa      	CPC  R31,R26
001090 f429      	BRNE _0xC
001091 940e 1e0e 	CALL SUBOPT_0x9
001093 940e 1e14 	CALL SUBOPT_0xA
001095 c080      	RJMP _0x5
                 _0xC:
001096 30e7      	CPI  R30,LOW(0x7)
001097 e0a0      	LDI  R26,HIGH(0x7)
001098 07fa      	CPC  R31,R26
001099 f421      	BRNE _0xD
00109a 81e8      	LD   R30,Y
00109b 940e 1e1b 	CALL SUBOPT_0xB
00109d c078      	RJMP _0x5
                 _0xD:
00109e 30e8      	CPI  R30,LOW(0x8)
00109f e0a0      	LDI  R26,HIGH(0x8)
0010a0 07fa      	CPC  R31,R26
0010a1 f429      	BRNE _0xE
0010a2 940e 1df2 	CALL SUBOPT_0x5
0010a4 940e 1e24 	CALL SUBOPT_0xC
0010a6 c06f      	RJMP _0x5
                 _0xE:
0010a7 30e9      	CPI  R30,LOW(0x9)
0010a8 e0a0      	LDI  R26,HIGH(0x9)
0010a9 07fa      	CPC  R31,R26
0010aa f429      	BRNE _0xF
0010ab 940e 1e0e 	CALL SUBOPT_0x9
0010ad 940e 1e2b 	CALL SUBOPT_0xD
0010af c066      	RJMP _0x5
                 _0xF:
0010b0 30ea      	CPI  R30,LOW(0xA)
0010b1 e0a0      	LDI  R26,HIGH(0xA)
0010b2 07fa      	CPC  R31,R26
0010b3 f421      	BRNE _0x10
0010b4 81e8      	LD   R30,Y
0010b5 940e 1e32 	CALL SUBOPT_0xE
0010b7 c05e      	RJMP _0x5
                 _0x10:
0010b8 30eb      	CPI  R30,LOW(0xB)
0010b9 e0a0      	LDI  R26,HIGH(0xB)
0010ba 07fa      	CPC  R31,R26
0010bb f429      	BRNE _0x11
0010bc 940e 1df2 	CALL SUBOPT_0x5
0010be 940e 1e3b 	CALL SUBOPT_0xF
0010c0 c055      	RJMP _0x5
                 _0x11:
0010c1 30ec      	CPI  R30,LOW(0xC)
0010c2 e0a0      	LDI  R26,HIGH(0xC)
0010c3 07fa      	CPC  R31,R26
0010c4 f429      	BRNE _0x12
0010c5 940e 1e0e 	CALL SUBOPT_0x9
0010c7 940e 1e42 	CALL SUBOPT_0x10
0010c9 c04c      	RJMP _0x5
                 _0x12:
0010ca 30ed      	CPI  R30,LOW(0xD)
0010cb e0a0      	LDI  R26,HIGH(0xD)
0010cc 07fa      	CPC  R31,R26
0010cd f439      	BRNE _0x13
0010ce 81e8      	LD   R30,Y
0010cf 70e1      	ANDI R30,LOW(0x1)
0010d0 2e0e      	MOV  R0,R30
0010d1 91e0 0528 	LDS  R30,_Relays
0010d3 7fee      	ANDI R30,0xFE
0010d4 c03e      	RJMP _0x164
                 _0x13:
0010d5 30ee      	CPI  R30,LOW(0xE)
0010d6 e0a0      	LDI  R26,HIGH(0xE)
0010d7 07fa      	CPC  R31,R26
0010d8 f431      	BRNE _0x14
0010d9 940e 1df2 	CALL SUBOPT_0x5
0010db 91e0 0528 	LDS  R30,_Relays
0010dd 7fed      	ANDI R30,0xFD
0010de c034      	RJMP _0x164
                 _0x14:
0010df 30ef      	CPI  R30,LOW(0xF)
0010e0 e0a0      	LDI  R26,HIGH(0xF)
0010e1 07fa      	CPC  R31,R26
0010e2 f431      	BRNE _0x15
0010e3 940e 1e0e 	CALL SUBOPT_0x9
0010e5 91e0 0528 	LDS  R30,_Relays
0010e7 7feb      	ANDI R30,0xFB
0010e8 c02a      	RJMP _0x164
                 _0x15:
0010e9 31e0      	CPI  R30,LOW(0x10)
0010ea e0a0      	LDI  R26,HIGH(0x10)
0010eb 07fa      	CPC  R31,R26
0010ec f439      	BRNE _0x16
0010ed 81e8      	LD   R30,Y
0010ee 940e 1e49 	CALL SUBOPT_0x11
0010f0 91e0 0528 	LDS  R30,_Relays
0010f2 7fe7      	ANDI R30,0XF7
0010f3 c01f      	RJMP _0x164
                 _0x16:
0010f4 31e1      	CPI  R30,LOW(0x11)
0010f5 e0a0      	LDI  R26,HIGH(0x11)
0010f6 07fa      	CPC  R31,R26
0010f7 f421      	BRNE _0x17
0010f8 81e8      	LD   R30,Y
0010f9 940e 1e4f 	CALL SUBOPT_0x12
0010fb c017      	RJMP _0x164
                 _0x17:
0010fc 31e2      	CPI  R30,LOW(0x12)
0010fd e0a0      	LDI  R26,HIGH(0x12)
0010fe 07fa      	CPC  R31,R26
0010ff f421      	BRNE _0x18
001100 81e8      	LD   R30,Y
001101 940e 1e57 	CALL SUBOPT_0x13
001103 c00f      	RJMP _0x164
                 _0x18:
001104 31e3      	CPI  R30,LOW(0x13)
001105 e0a0      	LDI  R26,HIGH(0x13)
001106 07fa      	CPC  R31,R26
001107 f421      	BRNE _0x19
001108 81e8      	LD   R30,Y
001109 940e 1e60 	CALL SUBOPT_0x14
00110b c007      	RJMP _0x164
                 _0x19:
00110c 31e4      	CPI  R30,LOW(0x14)
00110d e0a0      	LDI  R26,HIGH(0x14)
00110e 07fa      	CPC  R31,R26
00110f f431      	BRNE _0x5
001110 81e8      	LD   R30,Y
001111 940e 1e6a 	CALL SUBOPT_0x15
                 _0x164:
001113 29e0      	OR   R30,R0
001114 93e0 0528 	STS  _Relays,R30
                 _0x5:
001116 91e0 0528 	LDS  R30,_Relays
001118 93e0 1100 	STS  4352,R30
00111a 940e 1e73 	CALL SUBOPT_0x16
00111c 940e 1e78 	CALL SUBOPT_0x17
00111e 940e 1e7d 	CALL SUBOPT_0x18
001120 940e 1e82 	CALL SUBOPT_0x19
001122 c0d3      	RJMP _0x20A0007
                 ; .FEND
                 _ActuatorsDongBoThietBi:
                 ; .FSTART _ActuatorsDongBoThietBi
001123 93aa      	ST   -Y,R26
                 ;	Device -> Y+1
                 ;	Status -> Y+0
                +
001124 ecee     +LDI R30 , LOW ( 2 * _0x0 + ( 34 ) )
001125 e1fe     +LDI R31 , HIGH ( 2 * _0x0 + ( 34 ) )
                 	__POINTW1FN _0x0,34
001126 93fa      	ST   -Y,R31
001127 93ea      	ST   -Y,R30
001128 940e 1e87 	CALL SUBOPT_0x1A
00112a 940e 1e8e 	CALL SUBOPT_0x1B
00112c c0c9      	RJMP _0x20A0007
                 ; .FEND
                 _ActuatorsDongBoHenGio:
                 ; .FSTART _ActuatorsDongBoHenGio
00112d 93aa      	ST   -Y,R26
                 ;	Device -> Y+1
                 ;	Status -> Y+0
                +
00112e ecee     +LDI R30 , LOW ( 2 * _0x0 + ( 34 ) )
00112f e1fe     +LDI R31 , HIGH ( 2 * _0x0 + ( 34 ) )
                 	__POINTW1FN _0x0,34
001130 93fa      	ST   -Y,R31
001131 93ea      	ST   -Y,R30
001132 940e 1e97 	CALL SUBOPT_0x1C
001134 940e 1e8e 	CALL SUBOPT_0x1B
001136 c0bf      	RJMP _0x20A0007
                 ; .FEND
                 _AutoON:
                 ; .FSTART _AutoON
001137 93aa      	ST   -Y,R26
                 ;	Device -> Y+1
                 ;	Status -> Y+0
001138 81a9      	LDD  R26,Y+1
001139 31a5      	CPI  R26,LOW(0x15)
00113a f4d1      	BRNE _0x1F
00113b e0e1      	LDI  R30,LOW(1)
00113c 93e0 052d 	STS  _flagAutoDen,R30
00113e 940e 1dce 	CALL SUBOPT_0x0
001140 940e 1e9e 	CALL SUBOPT_0x1D
001142 940e 1ea5 	CALL SUBOPT_0x1E
001144 940e 1dce 	CALL SUBOPT_0x0
001146 940e 1e87 	CALL SUBOPT_0x1A
001148 940e 1ea5 	CALL SUBOPT_0x1E
00114a 940e 1dce 	CALL SUBOPT_0x0
00114c 940e 1e97 	CALL SUBOPT_0x1C
00114e 940e 1ea5 	CALL SUBOPT_0x1E
001150 940e 1eac 	CALL SUBOPT_0x1F
001152 940e 1eb1 	CALL SUBOPT_0x20
001154 c039      	RJMP _0x165
                 _0x1F:
001155 81a9      	LDD  R26,Y+1
001156 31a6      	CPI  R26,LOW(0x16)
001157 f4d1      	BRNE _0x21
001158 e0e1      	LDI  R30,LOW(1)
001159 93e0 052e 	STS  _flagAutoQuat,R30
00115b 940e 1dce 	CALL SUBOPT_0x0
00115d 940e 1eb1 	CALL SUBOPT_0x20
00115f 940e 1eb6 	CALL SUBOPT_0x21
001161 940e 1dce 	CALL SUBOPT_0x0
001163 940e 1eb9 	CALL SUBOPT_0x22
001165 940e 1eb6 	CALL SUBOPT_0x21
001167 940e 1dce 	CALL SUBOPT_0x0
001169 940e 1ebe 	CALL SUBOPT_0x23
00116b 940e 1eb6 	CALL SUBOPT_0x21
00116d 940e 1eac 	CALL SUBOPT_0x1F
00116f 940e 1eb9 	CALL SUBOPT_0x22
001171 c01c      	RJMP _0x165
                 _0x21:
001172 81a9      	LDD  R26,Y+1
001173 31a7      	CPI  R26,LOW(0x17)
001174 f509      	BRNE _0x23
001175 e0e1      	LDI  R30,LOW(1)
001176 93e0 052f 	STS  _flagAutoBom,R30
001178 940e 1dce 	CALL SUBOPT_0x0
00117a 940e 1ec3 	CALL SUBOPT_0x24
00117c 940e 1eb6 	CALL SUBOPT_0x21
00117e 940e 1dce 	CALL SUBOPT_0x0
001180 940e 1ec8 	CALL SUBOPT_0x25
001182 940e 1eb6 	CALL SUBOPT_0x21
001184 940e 1dce 	CALL SUBOPT_0x0
001186 940e 1ecd 	CALL SUBOPT_0x26
001188 940e 1eb6 	CALL SUBOPT_0x21
00118a 940e 1eac 	CALL SUBOPT_0x1F
00118c 940e 1ebe 	CALL SUBOPT_0x23
                 _0x165:
00118e 940e 216b 	CALL __PUTPARD1
                +
001190 e0e1     +LDI R30 , LOW ( 0x1 )
001191 e0f0     +LDI R31 , HIGH ( 0x1 )
001192 e060     +LDI R22 , BYTE3 ( 0x1 )
001193 e070     +LDI R23 , BYTE4 ( 0x1 )
                 	__GETD1N 0x1
001194 940e 1ed2 	CALL SUBOPT_0x27
                 _0x23:
001196 c05f      	RJMP _0x20A0007
                 ; .FEND
                 _AutoOFF:
                 ; .FSTART _AutoOFF
001197 93aa      	ST   -Y,R26
                 ;	Device -> Y+1
                 ;	Status -> Y+0
001198 81a9      	LDD  R26,Y+1
001199 31a5      	CPI  R26,LOW(0x15)
00119a f4d1      	BRNE _0x24
00119b e0e0      	LDI  R30,LOW(0)
00119c 93e0 052d 	STS  _flagAutoDen,R30
00119e 940e 1dce 	CALL SUBOPT_0x0
0011a0 940e 1e9e 	CALL SUBOPT_0x1D
0011a2 940e 1ed9 	CALL SUBOPT_0x28
0011a4 940e 1dce 	CALL SUBOPT_0x0
0011a6 940e 1e87 	CALL SUBOPT_0x1A
0011a8 940e 1ed9 	CALL SUBOPT_0x28
0011aa 940e 1dce 	CALL SUBOPT_0x0
0011ac 940e 1e97 	CALL SUBOPT_0x1C
0011ae 940e 1ed9 	CALL SUBOPT_0x28
0011b0 940e 1eac 	CALL SUBOPT_0x1F
0011b2 940e 1eb1 	CALL SUBOPT_0x20
0011b4 c039      	RJMP _0x166
                 _0x24:
0011b5 81a9      	LDD  R26,Y+1
0011b6 31a6      	CPI  R26,LOW(0x16)
0011b7 f4d1      	BRNE _0x26
0011b8 e0e0      	LDI  R30,LOW(0)
0011b9 93e0 052e 	STS  _flagAutoQuat,R30
0011bb 940e 1dce 	CALL SUBOPT_0x0
0011bd 940e 1eb1 	CALL SUBOPT_0x20
0011bf 940e 1ee0 	CALL SUBOPT_0x29
0011c1 940e 1dce 	CALL SUBOPT_0x0
0011c3 940e 1eb9 	CALL SUBOPT_0x22
0011c5 940e 1ee0 	CALL SUBOPT_0x29
0011c7 940e 1dce 	CALL SUBOPT_0x0
0011c9 940e 1ebe 	CALL SUBOPT_0x23
0011cb 940e 1ee0 	CALL SUBOPT_0x29
0011cd 940e 1eac 	CALL SUBOPT_0x1F
0011cf 940e 1eb9 	CALL SUBOPT_0x22
0011d1 c01c      	RJMP _0x166
                 _0x26:
0011d2 81a9      	LDD  R26,Y+1
0011d3 31a7      	CPI  R26,LOW(0x17)
0011d4 f509      	BRNE _0x28
0011d5 e0e0      	LDI  R30,LOW(0)
0011d6 93e0 052f 	STS  _flagAutoBom,R30
0011d8 940e 1dce 	CALL SUBOPT_0x0
0011da 940e 1ec3 	CALL SUBOPT_0x24
0011dc 940e 1ee0 	CALL SUBOPT_0x29
0011de 940e 1dce 	CALL SUBOPT_0x0
0011e0 940e 1ec8 	CALL SUBOPT_0x25
0011e2 940e 1ee0 	CALL SUBOPT_0x29
0011e4 940e 1dce 	CALL SUBOPT_0x0
0011e6 940e 1ecd 	CALL SUBOPT_0x26
0011e8 940e 1ee0 	CALL SUBOPT_0x29
0011ea 940e 1eac 	CALL SUBOPT_0x1F
0011ec 940e 1ebe 	CALL SUBOPT_0x23
                 _0x166:
0011ee 940e 216b 	CALL __PUTPARD1
                +
0011f0 e0e0     +LDI R30 , LOW ( 0x0 )
0011f1 e0f0     +LDI R31 , HIGH ( 0x0 )
0011f2 e060     +LDI R22 , BYTE3 ( 0x0 )
0011f3 e070     +LDI R23 , BYTE4 ( 0x0 )
                 	__GETD1N 0x0
0011f4 940e 1ed2 	CALL SUBOPT_0x27
                 _0x28:
                 _0x20A0007:
0011f6 9622      	ADIW R28,2
0011f7 9508      	RET
                 ; .FEND
                 ;#include "./lib/lcd20x4.h"
                 ;#include "./lib/dht11.h"
                 ;#include "./lib/uart0.h"
                 _usart0_rx_isr:
                 ; .FSTART _usart0_rx_isr
0011f8 93ea      	ST   -Y,R30
0011f9 93fa      	ST   -Y,R31
0011fa b7ef      	IN   R30,SREG
0011fb 93ea      	ST   -Y,R30
0011fc 931a      	ST   -Y,R17
                 ;	data -> R17
0011fd b11c      	IN   R17,12
0011fe 301a      	CPI  R17,10
0011ff f421      	BRNE _0x29
001200 e0e1      	LDI  R30,LOW(1)
001201 2e4e      	MOV  R4,R30
001202 2455      	CLR  R5
001203 c006      	RJMP _0x2A
                 _0x29:
001204 2de5      	MOV  R30,R5
001205 e0f0      	LDI  R31,0
001206 5de0      	SUBI R30,LOW(-_rx_buffer)
001207 4ffa      	SBCI R31,HIGH(-_rx_buffer)
001208 8310      	ST   Z,R17
001209 9453      	INC  R5
                 _0x2A:
00120a 9119      	LD   R17,Y+
00120b c1d9      	RJMP _0x173
                 ; .FEND
                 _uart_handler:
                 ; .FSTART _uart_handler
00120c 2044      	TST  R4
00120d f409      	BRNE PC+2
00120e c1bf      	RJMP _0x2B
                +
00120f 91e0 0531+LDS R30 , _rx_buffer + ( 1 )
                 	__GETB1MN _rx_buffer,1
001211 940e 1ee3 	CALL SUBOPT_0x2A
                +
001213 91e0 0532+LDS R30 , _rx_buffer + ( 2 )
                 	__GETB1MN _rx_buffer,2
001215 0fae      	ADD  R26,R30
001216 53a0      	SUBI R26,LOW(48)
001217 2e7a      	MOV  R7,R26
001218 91e0 0530 	LDS  R30,_rx_buffer
00121a e0f0      	LDI  R31,0
00121b 35e3      	CPI  R30,LOW(0x53)
00121c e0a0      	LDI  R26,HIGH(0x53)
00121d 07fa      	CPC  R31,R26
00121e f009      	BREQ PC+2
00121f c114      	RJMP _0x2F
                +
001220 91e0 0533+LDS R30 , _rx_buffer + ( 3 )
                 	__GETB1MN _rx_buffer,3
001222 53e0      	SUBI R30,LOW(48)
001223 2e6e      	MOV  R6,R30
001224 e1e4      	LDI  R30,LOW(20)
001225 15e7      	CP   R30,R7
001226 f421      	BRNE _0x30
001227 9a94      	SBI  0x12,4
001228 b7e7      	IN   R30,0x37
001229 60e4      	ORI  R30,4
00122a bfe7      	OUT  0x37,R30
                 _0x30:
00122b 2de7      	MOV  R30,R7
00122c e0f0      	LDI  R31,0
00122d 9730      	SBIW R30,0
00122e f441      	BRNE _0x36
00122f 9260 062a 	STS  _arrStatuTB,R6
001231 2de6      	MOV  R30,R6
001232 940e 1de9 	CALL SUBOPT_0x4
001234 940e 1e82 	CALL SUBOPT_0x19
001236 c0fc      	RJMP _0x35
                 _0x36:
001237 30e1      	CPI  R30,LOW(0x1)
001238 e0a0      	LDI  R26,HIGH(0x1)
001239 07fa      	CPC  R31,R26
00123a f449      	BRNE _0x37
                +
00123b 9260 062b+STS _arrStatuTB + ( 1 ) , R6
                 	__PUTBMRN _arrStatuTB,1,6
00123d 940e 1ee9 	CALL SUBOPT_0x2B
00123f 940e 1df7 	CALL SUBOPT_0x6
001241 940e 1e82 	CALL SUBOPT_0x19
001243 c0ef      	RJMP _0x35
                 _0x37:
001244 30e2      	CPI  R30,LOW(0x2)
001245 e0a0      	LDI  R26,HIGH(0x2)
001246 07fa      	CPC  R31,R26
001247 f459      	BRNE _0x38
                +
001248 9260 062c+STS _arrStatuTB + ( 2 ) , R6
                 	__PUTBMRN _arrStatuTB,2,6
00124a 940e 1eee 	CALL SUBOPT_0x2C
00124c 91e0 052c 	LDS  R30,_Sensors
00124e 7feb      	ANDI R30,0xFB
00124f 29e0      	OR   R30,R0
001250 940e 1ef4 	CALL SUBOPT_0x2D
001252 c0e0      	RJMP _0x35
                 _0x38:
001253 30e3      	CPI  R30,LOW(0x3)
001254 e0a0      	LDI  R26,HIGH(0x3)
001255 07fa      	CPC  R31,R26
001256 f461      	BRNE _0x39
                +
001257 9260 062d+STS _arrStatuTB + ( 3 ) , R6
                 	__PUTBMRN _arrStatuTB,3,6
001259 2de6      	MOV  R30,R6
00125a 940e 1e49 	CALL SUBOPT_0x11
00125c 91e0 052c 	LDS  R30,_Sensors
00125e 7fe7      	ANDI R30,0XF7
00125f 29e0      	OR   R30,R0
001260 940e 1ef4 	CALL SUBOPT_0x2D
001262 c0d0      	RJMP _0x35
                 _0x39:
001263 30e4      	CPI  R30,LOW(0x4)
001264 e0a0      	LDI  R26,HIGH(0x4)
001265 07fa      	CPC  R31,R26
001266 f441      	BRNE _0x3A
                +
001267 9260 062e+STS _arrStatuTB + ( 4 ) , R6
                 	__PUTBMRN _arrStatuTB,4,6
001269 2de6      	MOV  R30,R6
00126a 940e 1dfe 	CALL SUBOPT_0x7
00126c 940e 1e73 	CALL SUBOPT_0x16
00126e c0c4      	RJMP _0x35
                 _0x3A:
00126f 30e5      	CPI  R30,LOW(0x5)
001270 e0a0      	LDI  R26,HIGH(0x5)
001271 07fa      	CPC  R31,R26
001272 f449      	BRNE _0x3B
                +
001273 9260 062f+STS _arrStatuTB + ( 5 ) , R6
                 	__PUTBMRN _arrStatuTB,5,6
001275 940e 1ee9 	CALL SUBOPT_0x2B
001277 940e 1e07 	CALL SUBOPT_0x8
001279 940e 1e73 	CALL SUBOPT_0x16
00127b c0b7      	RJMP _0x35
                 _0x3B:
00127c 30e6      	CPI  R30,LOW(0x6)
00127d e0a0      	LDI  R26,HIGH(0x6)
00127e 07fa      	CPC  R31,R26
00127f f449      	BRNE _0x3C
                +
001280 9260 0630+STS _arrStatuTB + ( 6 ) , R6
                 	__PUTBMRN _arrStatuTB,6,6
001282 940e 1eee 	CALL SUBOPT_0x2C
001284 940e 1e14 	CALL SUBOPT_0xA
001286 940e 1e73 	CALL SUBOPT_0x16
001288 c0aa      	RJMP _0x35
                 _0x3C:
001289 30e7      	CPI  R30,LOW(0x7)
00128a e0a0      	LDI  R26,HIGH(0x7)
00128b 07fa      	CPC  R31,R26
00128c f441      	BRNE _0x3D
                +
00128d 9260 0631+STS _arrStatuTB + ( 7 ) , R6
                 	__PUTBMRN _arrStatuTB,7,6
00128f 2de6      	MOV  R30,R6
001290 940e 1e1b 	CALL SUBOPT_0xB
001292 940e 1e78 	CALL SUBOPT_0x17
001294 c09e      	RJMP _0x35
                 _0x3D:
001295 30e8      	CPI  R30,LOW(0x8)
001296 e0a0      	LDI  R26,HIGH(0x8)
001297 07fa      	CPC  R31,R26
001298 f449      	BRNE _0x3E
                +
001299 9260 0632+STS _arrStatuTB + ( 8 ) , R6
                 	__PUTBMRN _arrStatuTB,8,6
00129b 940e 1ee9 	CALL SUBOPT_0x2B
00129d 940e 1e24 	CALL SUBOPT_0xC
00129f 940e 1e78 	CALL SUBOPT_0x17
0012a1 c091      	RJMP _0x35
                 _0x3E:
0012a2 30e9      	CPI  R30,LOW(0x9)
0012a3 e0a0      	LDI  R26,HIGH(0x9)
0012a4 07fa      	CPC  R31,R26
0012a5 f449      	BRNE _0x3F
                +
0012a6 9260 0633+STS _arrStatuTB + ( 9 ) , R6
                 	__PUTBMRN _arrStatuTB,9,6
0012a8 940e 1eee 	CALL SUBOPT_0x2C
0012aa 940e 1e2b 	CALL SUBOPT_0xD
0012ac 940e 1e78 	CALL SUBOPT_0x17
0012ae c084      	RJMP _0x35
                 _0x3F:
0012af 30ea      	CPI  R30,LOW(0xA)
0012b0 e0a0      	LDI  R26,HIGH(0xA)
0012b1 07fa      	CPC  R31,R26
0012b2 f441      	BRNE _0x40
                +
0012b3 9260 0634+STS _arrStatuTB + ( 10 ) , R6
                 	__PUTBMRN _arrStatuTB,10,6
0012b5 2de6      	MOV  R30,R6
0012b6 940e 1e32 	CALL SUBOPT_0xE
0012b8 940e 1e7d 	CALL SUBOPT_0x18
0012ba c078      	RJMP _0x35
                 _0x40:
0012bb 30eb      	CPI  R30,LOW(0xB)
0012bc e0a0      	LDI  R26,HIGH(0xB)
0012bd 07fa      	CPC  R31,R26
0012be f449      	BRNE _0x41
                +
0012bf 9260 0635+STS _arrStatuTB + ( 11 ) , R6
                 	__PUTBMRN _arrStatuTB,11,6
0012c1 940e 1ee9 	CALL SUBOPT_0x2B
0012c3 940e 1e3b 	CALL SUBOPT_0xF
0012c5 940e 1e7d 	CALL SUBOPT_0x18
0012c7 c06b      	RJMP _0x35
                 _0x41:
0012c8 30ec      	CPI  R30,LOW(0xC)
0012c9 e0a0      	LDI  R26,HIGH(0xC)
0012ca 07fa      	CPC  R31,R26
0012cb f449      	BRNE _0x42
                +
0012cc 9260 0636+STS _arrStatuTB + ( 12 ) , R6
                 	__PUTBMRN _arrStatuTB,12,6
0012ce 940e 1eee 	CALL SUBOPT_0x2C
0012d0 940e 1e42 	CALL SUBOPT_0x10
0012d2 940e 1e7d 	CALL SUBOPT_0x18
0012d4 c05e      	RJMP _0x35
                 _0x42:
0012d5 30ed      	CPI  R30,LOW(0xD)
0012d6 e0a0      	LDI  R26,HIGH(0xD)
0012d7 07fa      	CPC  R31,R26
0012d8 f449      	BRNE _0x43
                +
0012d9 9260 0637+STS _arrStatuTB + ( 13 ) , R6
                 	__PUTBMRN _arrStatuTB,13,6
0012db 2de6      	MOV  R30,R6
0012dc 70e1      	ANDI R30,LOW(0x1)
0012dd 2e0e      	MOV  R0,R30
0012de 91e0 0528 	LDS  R30,_Relays
0012e0 7fee      	ANDI R30,0xFE
0012e1 c04c      	RJMP _0x167
                 _0x43:
0012e2 30ee      	CPI  R30,LOW(0xE)
0012e3 e0a0      	LDI  R26,HIGH(0xE)
0012e4 07fa      	CPC  R31,R26
0012e5 f441      	BRNE _0x44
                +
0012e6 9260 0638+STS _arrStatuTB + ( 14 ) , R6
                 	__PUTBMRN _arrStatuTB,14,6
0012e8 940e 1ee9 	CALL SUBOPT_0x2B
0012ea 91e0 0528 	LDS  R30,_Relays
0012ec 7fed      	ANDI R30,0xFD
0012ed c040      	RJMP _0x167
                 _0x44:
0012ee 30ef      	CPI  R30,LOW(0xF)
0012ef e0a0      	LDI  R26,HIGH(0xF)
0012f0 07fa      	CPC  R31,R26
0012f1 f441      	BRNE _0x45
                +
0012f2 9260 0639+STS _arrStatuTB + ( 15 ) , R6
                 	__PUTBMRN _arrStatuTB,15,6
0012f4 940e 1eee 	CALL SUBOPT_0x2C
0012f6 91e0 0528 	LDS  R30,_Relays
0012f8 7feb      	ANDI R30,0xFB
0012f9 c034      	RJMP _0x167
                 _0x45:
0012fa 31e0      	CPI  R30,LOW(0x10)
0012fb e0a0      	LDI  R26,HIGH(0x10)
0012fc 07fa      	CPC  R31,R26
0012fd f449      	BRNE _0x46
                +
0012fe 9260 063a+STS _arrStatuTB + ( 16 ) , R6
                 	__PUTBMRN _arrStatuTB,16,6
001300 2de6      	MOV  R30,R6
001301 940e 1e49 	CALL SUBOPT_0x11
001303 91e0 0528 	LDS  R30,_Relays
001305 7fe7      	ANDI R30,0XF7
001306 c027      	RJMP _0x167
                 _0x46:
001307 31e1      	CPI  R30,LOW(0x11)
001308 e0a0      	LDI  R26,HIGH(0x11)
001309 07fa      	CPC  R31,R26
00130a f431      	BRNE _0x47
                +
00130b 9260 063b+STS _arrStatuTB + ( 17 ) , R6
                 	__PUTBMRN _arrStatuTB,17,6
00130d 2de6      	MOV  R30,R6
00130e 940e 1e4f 	CALL SUBOPT_0x12
001310 c01d      	RJMP _0x167
                 _0x47:
001311 31e2      	CPI  R30,LOW(0x12)
001312 e0a0      	LDI  R26,HIGH(0x12)
001313 07fa      	CPC  R31,R26
001314 f431      	BRNE _0x48
                +
001315 9260 063c+STS _arrStatuTB + ( 18 ) , R6
                 	__PUTBMRN _arrStatuTB,18,6
001317 2de6      	MOV  R30,R6
001318 940e 1e57 	CALL SUBOPT_0x13
00131a c013      	RJMP _0x167
                 _0x48:
00131b 31e3      	CPI  R30,LOW(0x13)
00131c e0a0      	LDI  R26,HIGH(0x13)
00131d 07fa      	CPC  R31,R26
00131e f431      	BRNE _0x49
                +
00131f 9260 063d+STS _arrStatuTB + ( 19 ) , R6
                 	__PUTBMRN _arrStatuTB,19,6
001321 2de6      	MOV  R30,R6
001322 940e 1e60 	CALL SUBOPT_0x14
001324 c009      	RJMP _0x167
                 _0x49:
001325 31e4      	CPI  R30,LOW(0x14)
001326 e0a0      	LDI  R26,HIGH(0x14)
001327 07fa      	CPC  R31,R26
001328 f451      	BRNE _0x35
                +
001329 9260 063e+STS _arrStatuTB + ( 20 ) , R6
                 	__PUTBMRN _arrStatuTB,20,6
00132b 2de6      	MOV  R30,R6
00132c 940e 1e6a 	CALL SUBOPT_0x15
                 _0x167:
00132e 29e0      	OR   R30,R0
00132f 93e0 0528 	STS  _Relays,R30
001331 93e0 1100 	STS  4352,R30
                 _0x35:
001333 c099      	RJMP _0x2E
                 _0x2F:
001334 34ee      	CPI  R30,LOW(0x4E)
001335 e0a0      	LDI  R26,HIGH(0x4E)
001336 07fa      	CPC  R31,R26
001337 f4e9      	BRNE _0x4B
                +
001338 91e0 0533+LDS R30 , _rx_buffer + ( 3 )
                 	__GETB1MN _rx_buffer,3
00133a 940e 1ee3 	CALL SUBOPT_0x2A
                +
00133c 91e0 0534+LDS R30 , _rx_buffer + ( 4 )
                 	__GETB1MN _rx_buffer,4
00133e 0fae      	ADD  R26,R30
00133f 53a0      	SUBI R26,LOW(48)
001340 2e9a      	MOV  R9,R26
                +
001341 91e0 0535+LDS R30 , _rx_buffer + ( 5 )
                 	__GETB1MN _rx_buffer,5
001343 940e 1ee3 	CALL SUBOPT_0x2A
                +
001345 91e0 0536+LDS R30 , _rx_buffer + ( 6 )
                 	__GETB1MN _rx_buffer,6
001347 0fae      	ADD  R26,R30
001348 53a0      	SUBI R26,LOW(48)
001349 2e8a      	MOV  R8,R26
00134a 2de7      	MOV  R30,R7
00134b e0f0      	LDI  R31,0
00134c 5bed      	SUBI R30,LOW(-_arrGioOn)
00134d 4ff9      	SBCI R31,HIGH(-_arrGioOn)
00134e 8290      	ST   Z,R9
00134f 2de7      	MOV  R30,R7
001350 e0f0      	LDI  R31,0
001351 59ef      	SUBI R30,LOW(-_arrPhutOn)
001352 4ff9      	SBCI R31,HIGH(-_arrPhutOn)
001353 8280      	ST   Z,R8
001354 c078      	RJMP _0x2E
                 _0x4B:
001355 34e6      	CPI  R30,LOW(0x46)
001356 e0a0      	LDI  R26,HIGH(0x46)
001357 07fa      	CPC  R31,R26
001358 f521      	BRNE _0x4C
001359 e1ea      	LDI  R30,LOW(26)
00135a 15e7      	CP   R30,R7
00135b f421      	BRNE _0x4D
00135c 9a94      	SBI  0x12,4
00135d b7e7      	IN   R30,0x37
00135e 60e4      	ORI  R30,4
00135f bfe7      	OUT  0x37,R30
                 _0x4D:
                +
001360 91e0 0533+LDS R30 , _rx_buffer + ( 3 )
                 	__GETB1MN _rx_buffer,3
001362 940e 1ee3 	CALL SUBOPT_0x2A
                +
001364 91e0 0534+LDS R30 , _rx_buffer + ( 4 )
                 	__GETB1MN _rx_buffer,4
001366 0fae      	ADD  R26,R30
001367 53a0      	SUBI R26,LOW(48)
001368 2eba      	MOV  R11,R26
                +
001369 91e0 0535+LDS R30 , _rx_buffer + ( 5 )
                 	__GETB1MN _rx_buffer,5
00136b 940e 1ee3 	CALL SUBOPT_0x2A
                +
00136d 91e0 0536+LDS R30 , _rx_buffer + ( 6 )
                 	__GETB1MN _rx_buffer,6
00136f 0fae      	ADD  R26,R30
001370 53a0      	SUBI R26,LOW(48)
001371 2eaa      	MOV  R10,R26
001372 2de7      	MOV  R30,R7
001373 e0f0      	LDI  R31,0
001374 58e1      	SUBI R30,LOW(-_arrGioOff)
001375 4ff9      	SBCI R31,HIGH(-_arrGioOff)
001376 82b0      	ST   Z,R11
001377 2de7      	MOV  R30,R7
001378 e0f0      	LDI  R31,0
001379 56e3      	SUBI R30,LOW(-_arrPhutOff)
00137a 4ff9      	SBCI R31,HIGH(-_arrPhutOff)
00137b 82a0      	ST   Z,R10
00137c c050      	RJMP _0x2E
                 _0x4C:
00137d 34e4      	CPI  R30,LOW(0x44)
00137e e0a0      	LDI  R26,HIGH(0x44)
00137f 07fa      	CPC  R31,R26
001380 f499      	BRNE _0x50
001381 2de7      	MOV  R30,R7
001382 e0f0      	LDI  R31,0
001383 5bed      	SUBI R30,LOW(-_arrGioOn)
001384 4ff9      	SBCI R31,HIGH(-_arrGioOn)
001385 940e 1ef7 	CALL SUBOPT_0x2E
001387 59ef      	SUBI R30,LOW(-_arrPhutOn)
001388 4ff9      	SBCI R31,HIGH(-_arrPhutOn)
001389 940e 1ef7 	CALL SUBOPT_0x2E
00138b 58e1      	SUBI R30,LOW(-_arrGioOff)
00138c 4ff9      	SBCI R31,HIGH(-_arrGioOff)
00138d 940e 1ef7 	CALL SUBOPT_0x2E
00138f 56e3      	SUBI R30,LOW(-_arrPhutOff)
001390 4ff9      	SBCI R31,HIGH(-_arrPhutOff)
001391 e4a6      	LDI  R26,LOW(70)
001392 83a0      	STD  Z+0,R26
001393 c039      	RJMP _0x2E
                 _0x50:
001394 34e1      	CPI  R30,LOW(0x41)
001395 e0a0      	LDI  R26,HIGH(0x41)
001396 07fa      	CPC  R31,R26
001397 f479      	BRNE _0x51
001398 940e 1efc 	CALL SUBOPT_0x2F
                +
00139a 9260 062e+STS _arrStatuTB + ( 4 ) , R6
                 	__PUTBMRN _arrStatuTB,4,6
                +
00139c 9260 062f+STS _arrStatuTB + ( 5 ) , R6
                 	__PUTBMRN _arrStatuTB,5,6
                +
00139e 9260 0630+STS _arrStatuTB + ( 6 ) , R6
                 	__PUTBMRN _arrStatuTB,6,6
                +
0013a0 e3af     +LDI R26 , LOW ( _arrStatuTB + ( 21 ) )
0013a1 e0b6     +LDI R27 , HIGH ( _arrStatuTB + ( 21 ) )
                 	__POINTW2MN _arrStatuTB,21
0013a2 2de6      	MOV  R30,R6
0013a3 93ec      	ST   X,R30
0013a4 93e0 052d 	STS  _flagAutoDen,R30
0013a6 c026      	RJMP _0x2E
                 _0x51:
0013a7 34e2      	CPI  R30,LOW(0x42)
0013a8 e0a0      	LDI  R26,HIGH(0x42)
0013a9 07fa      	CPC  R31,R26
0013aa f479      	BRNE _0x52
0013ab 940e 1efc 	CALL SUBOPT_0x2F
                +
0013ad 9260 0631+STS _arrStatuTB + ( 7 ) , R6
                 	__PUTBMRN _arrStatuTB,7,6
                +
0013af 9260 0632+STS _arrStatuTB + ( 8 ) , R6
                 	__PUTBMRN _arrStatuTB,8,6
                +
0013b1 9260 0633+STS _arrStatuTB + ( 9 ) , R6
                 	__PUTBMRN _arrStatuTB,9,6
                +
0013b3 e4a0     +LDI R26 , LOW ( _arrStatuTB + ( 22 ) )
0013b4 e0b6     +LDI R27 , HIGH ( _arrStatuTB + ( 22 ) )
                 	__POINTW2MN _arrStatuTB,22
0013b5 2de6      	MOV  R30,R6
0013b6 93ec      	ST   X,R30
0013b7 93e0 052e 	STS  _flagAutoQuat,R30
0013b9 c013      	RJMP _0x2E
                 _0x52:
0013ba 34e3      	CPI  R30,LOW(0x43)
0013bb e0a0      	LDI  R26,HIGH(0x43)
0013bc 07fa      	CPC  R31,R26
0013bd f479      	BRNE _0x2E
0013be 940e 1efc 	CALL SUBOPT_0x2F
                +
0013c0 9260 0634+STS _arrStatuTB + ( 10 ) , R6
                 	__PUTBMRN _arrStatuTB,10,6
                +
0013c2 9260 0635+STS _arrStatuTB + ( 11 ) , R6
                 	__PUTBMRN _arrStatuTB,11,6
                +
0013c4 9260 0636+STS _arrStatuTB + ( 12 ) , R6
                 	__PUTBMRN _arrStatuTB,12,6
                +
0013c6 91e0 0531+LDS R30 , _rx_buffer + ( 1 )
                 	__GETB1MN _rx_buffer,1
0013c8 53e0      	SUBI R30,LOW(48)
                +
0013c9 93e0 0641+STS _arrStatuTB + ( 23 ) , R30
                 	__PUTB1MN _arrStatuTB,23
0013cb 93e0 052f 	STS  _flagAutoBom,R30
                 _0x2E:
0013cd 2444      	CLR  R4
                 _0x2B:
0013ce 9508      	RET
                 ; .FEND
                 _usart0_tx_isr:
                 ; .FSTART _usart0_tx_isr
0013cf 93ea      	ST   -Y,R30
0013d0 93fa      	ST   -Y,R31
0013d1 b7ef      	IN   R30,SREG
0013d2 93ea      	ST   -Y,R30
0013d3 91e0 06fb 	LDS  R30,_tx_counter0
0013d5 30e0      	CPI  R30,0
0013d6 f071      	BREQ _0x54
0013d7 50e1      	SUBI R30,LOW(1)
0013d8 93e0 06fb 	STS  _tx_counter0,R30
0013da 2dec      	MOV  R30,R12
0013db 94c3      	INC  R12
0013dc e0f0      	LDI  R31,0
0013dd 54e5      	SUBI R30,LOW(-_tx_buffer0)
0013de 4ff9      	SBCI R31,HIGH(-_tx_buffer0)
0013df 81e0      	LD   R30,Z
0013e0 b9ec      	OUT  0xC,R30
0013e1 e4e0      	LDI  R30,LOW(64)
0013e2 15ec      	CP   R30,R12
0013e3 f409      	BRNE _0x55
0013e4 24cc      	CLR  R12
                 _0x55:
                 _0x54:
                 _0x173:
0013e5 91e9      	LD   R30,Y+
0013e6 bfef      	OUT  SREG,R30
0013e7 91f9      	LD   R31,Y+
0013e8 91e9      	LD   R30,Y+
0013e9 9518      	RETI
                 ; .FEND
                 _putchar:
                 ; .FSTART _putchar
0013ea 93aa      	ST   -Y,R26
                 ;	c -> Y+0
                 _0x56:
0013eb 91a0 06fb 	LDS  R26,_tx_counter0
0013ed 34a0      	CPI  R26,LOW(0x40)
0013ee f3e1      	BREQ _0x56
0013ef 94f8      	cli
0013f0 91e0 06fb 	LDS  R30,_tx_counter0
0013f2 30e0      	CPI  R30,0
0013f3 f411      	BRNE _0x5A
0013f4 995d      	SBIC 0xB,5
0013f5 c011      	RJMP _0x59
                 _0x5A:
0013f6 2ded      	MOV  R30,R13
0013f7 94d3      	INC  R13
0013f8 e0f0      	LDI  R31,0
0013f9 54e5      	SUBI R30,LOW(-_tx_buffer0)
0013fa 4ff9      	SBCI R31,HIGH(-_tx_buffer0)
0013fb 81a8      	LD   R26,Y
0013fc 83a0      	STD  Z+0,R26
0013fd e4e0      	LDI  R30,LOW(64)
0013fe 15ed      	CP   R30,R13
0013ff f409      	BRNE _0x5C
001400 24dd      	CLR  R13
                 _0x5C:
001401 91e0 06fb 	LDS  R30,_tx_counter0
001403 5fef      	SUBI R30,-LOW(1)
001404 93e0 06fb 	STS  _tx_counter0,R30
001406 c002      	RJMP _0x5D
                 _0x59:
001407 81e8      	LD   R30,Y
001408 b9ec      	OUT  0xC,R30
                 _0x5D:
001409 9478      	sei
00140a c00c      	RJMP _0x20A0006
                 ; .FEND
                 ;#include "./lib/myadc.h"
                 _read_adc:
                 ; .FSTART _read_adc
00140b 93aa      	ST   -Y,R26
                 ;	adc_input -> Y+0
00140c 81e8      	LD   R30,Y
00140d 6ee0      	ORI  R30,LOW(0xE0)
00140e b9e7      	OUT  0x7,R30
                +
00140f e483     +LDI R24 , LOW ( 67 )
                +__DELAY_USB_LOOP :
001410 958a     +DEC R24
001411 f7f1     +BRNE __DELAY_USB_LOOP
                 	__DELAY_USB 67
001412 9a36      	SBI  0x6,6
                 _0x5E:
001413 9b34      	SBIS 0x6,4
001414 cffe      	RJMP _0x5E
001415 9a34      	SBI  0x6,4
001416 b1e5      	IN   R30,0x5
                 _0x20A0006:
001417 9621      	ADIW R28,1
001418 9508      	RET
                 ; .FEND
                 ;
                 ;unsigned char s,h,m; // Bien cho ham thoi gian
                 ;unsigned char thu,d,n,y; // Bien cho ham ngay thang nam
                 ;char display_buffer[20];
                 ;
                 ;char I_RH,D_RH,I_Temp,D_Temp,CheckSum;  //DO AM VA NHIET DO
                 ;int doam=0; //do am dung hien thi
                 ;unsigned char temperature;  // nhiet do lm35
                 ;char DoAmDat=55;               // do am dat
                 
                 	.DSEG
                 ;char CamBienMua=1;            // cam bien mua
                 ;
                 ;//flag Auto
                 ;unsigned char flagAutoDen=0 ,flagAutoQuat=0 ,flagAutoBom=0;
                 ;
                 ;//arr hen gio
                 ;unsigned char arrStatuTB[25];
                 ;char arrGioOn[30] , arrGioOff[30];
                 ;char arrPhutOn[30], arrPhutOff[30];
                 ;char arrFlagHenGio[30];
                 ;
                 ;
                 ;//dinh nghia lai ham
                 ;void setup();
                 ;void MenuDisplay(flash struct Menu *,unsigned char);
                 ;void screenMainDisplay();
                 ;//void setTime();
                 ;void getTime();
                 ;void NhietdoVadoam();
                 ;void valueinitSensor();
                 ;void setValuesInitHengio();
                 ;void HenGio();
                 ;
                 ;int timeSensor=0;   //0.99s
                 ;
                 ;interrupt [TIM1_OVF] void timer1_ovf_isr(void)
                 ; 0000 002C {
                 
                 	.CSEG
                 _timer1_ovf_isr:
                 ; .FSTART _timer1_ovf_isr
001419 920a      	ST   -Y,R0
00141a 921a      	ST   -Y,R1
00141b 92fa      	ST   -Y,R15
00141c 936a      	ST   -Y,R22
00141d 937a      	ST   -Y,R23
00141e 938a      	ST   -Y,R24
00141f 939a      	ST   -Y,R25
001420 93aa      	ST   -Y,R26
001421 93ba      	ST   -Y,R27
001422 93ea      	ST   -Y,R30
001423 93fa      	ST   -Y,R31
001424 b7ef      	IN   R30,SREG
001425 93ea      	ST   -Y,R30
                 ; 0000 002D     // Reinitialize Timer1 value
                 ; 0000 002E     TCNT1H=0xB3B5 >> 8;
001426 ebe3      	LDI  R30,LOW(179)
001427 bded      	OUT  0x2D,R30
                 ; 0000 002F     TCNT1L=0xB3B5 & 0xff;
001428 ebe5      	LDI  R30,LOW(181)
001429 bdec      	OUT  0x2C,R30
                 ; 0000 0030 
                 ; 0000 0031     ++timeSensor;
00142a e3af      	LDI  R26,LOW(_timeSensor)
00142b e0b7      	LDI  R27,HIGH(_timeSensor)
00142c 940e 1f01 	CALL SUBOPT_0x30
                 ; 0000 0032     if(timeSensor==20)  //20s
00142e 91a0 073f 	LDS  R26,_timeSensor
001430 91b0 0740 	LDS  R27,_timeSensor+1
001432 9754      	SBIW R26,20
001433 f431      	BRNE _0x63
                 ; 0000 0033     {
                 ; 0000 0034         NhietdoVadoam();
001434 d3bd      	RCALL _NhietdoVadoam
                 ; 0000 0035         timeSensor=0;
001435 e0e0      	LDI  R30,LOW(0)
001436 93e0 073f 	STS  _timeSensor,R30
001438 93e0 0740 	STS  _timeSensor+1,R30
                 ; 0000 0036     }
                 ; 0000 0037 }
                 _0x63:
00143a 91e9      	LD   R30,Y+
00143b bfef      	OUT  SREG,R30
00143c 91f9      	LD   R31,Y+
00143d 91e9      	LD   R30,Y+
00143e 91b9      	LD   R27,Y+
00143f 91a9      	LD   R26,Y+
001440 9199      	LD   R25,Y+
001441 9189      	LD   R24,Y+
001442 9179      	LD   R23,Y+
001443 9169      	LD   R22,Y+
001444 90f9      	LD   R15,Y+
001445 9019      	LD   R1,Y+
001446 9009      	LD   R0,Y+
001447 9518      	RETI
                 ; .FEND
                 ;
                 ;void main(void)
                 ; 0000 003A {
                 _main:
                 ; .FSTART _main
                 ; 0000 003B      unsigned char select=1 , flagMenu=0 ;
                 ; 0000 003C      flash struct Menu *menu;
                 ; 0000 003D 
                 ; 0000 003E      setup();
                 ;	select -> R17
                 ;	flagMenu -> R16
                 ;	*menu -> R18,R19
001448 e011      	LDI  R17,1
001449 e000      	LDI  R16,0
00144a d672      	RCALL _setup
                 ; 0000 003F 
                 ; 0000 0040      LcdInit();
00144b 940e 1b37 	CALL _LcdInit
                 ; 0000 0041 
                 ; 0000 0042      s=0; m=38; h=10;
00144d e0e0      	LDI  R30,LOW(0)
00144e 93e0 06fc 	STS  _s,R30
001450 e2e6      	LDI  R30,LOW(38)
001451 93e0 06fe 	STS  _m,R30
001453 e0ea      	LDI  R30,LOW(10)
001454 93e0 06fd 	STS  _h,R30
                 ; 0000 0043      thu=3; n=11; d=1; y=22;
001456 e0e3      	LDI  R30,LOW(3)
001457 93e0 06ff 	STS  _thu,R30
001459 e0eb      	LDI  R30,LOW(11)
00145a 93e0 0701 	STS  _n,R30
00145c e0e1      	LDI  R30,LOW(1)
00145d 93e0 0700 	STS  _d,R30
00145f e1e6      	LDI  R30,LOW(22)
001460 93e0 0702 	STS  _y,R30
                 ; 0000 0044 
                 ; 0000 0045      setValuesInitHengio();
001462 d3d1      	RCALL _setValuesInitHengio
                 ; 0000 0046      valueinitSensor();
001463 d240      	RCALL _valueinitSensor
                 ; 0000 0047      //setTime();
                 ; 0000 0048 
                 ; 0000 0049      //printf( "{\"type\":%d}\r\n" , getalldataStatusTB);
                 ; 0000 004A      //printf( "{\"type\":%d}\r\n" , getalldataHengioTB);
                 ; 0000 004B 
                 ; 0000 004C     while (1)
                 _0x64:
                 ; 0000 004D     {
                 ; 0000 004E          getTime();
001464 d257      	RCALL _getTime
                 ; 0000 004F          screenMainDisplay();
001465 d312      	RCALL _screenMainDisplay
                 ; 0000 0050          uart_handler();
001466 dda5      	RCALL _uart_handler
                 ; 0000 0051          HenGio();
001467 d521      	RCALL _HenGio
                 ; 0000 0052 
                 ; 0000 0053          //auto thiet bi
                 ; 0000 0054          if(flagAutoDen==1)
001468 91a0 052d 	LDS  R26,_flagAutoDen
00146a 30a1      	CPI  R26,LOW(0x1)
00146b f501      	BRNE _0x67
                 ; 0000 0055          {
                 ; 0000 0056             if(h >= 18 | CamBienMua==1)  // neu lon hon 6 gio toi va troi mua thi den bat
00146c 91a0 06fd 	LDS  R26,_h
00146e e1e2      	LDI  R30,LOW(18)
00146f 940e 2127 	CALL __GEB12U
001471 2e0e      	MOV  R0,R30
001472 91a0 0720 	LDS  R26,_CamBienMua
001474 e0e1      	LDI  R30,LOW(1)
001475 940e 2122 	CALL __EQB12
001477 29e0      	OR   R30,R0
001478 f051      	BREQ _0x68
                 ; 0000 0057             {
                 ; 0000 0058                 if(Dens.thietbiall != 0xFF)
001479 91a0 0529 	LDS  R26,_Dens
00147b 3faf      	CPI  R26,LOW(0xFF)
00147c f029      	BREQ _0x69
                 ; 0000 0059                 {
                 ; 0000 005A                     Dens.thietbiall=0xFF;
00147d efef      	LDI  R30,LOW(255)
00147e 93e0 0529 	STS  _Dens,R30
                 ; 0000 005B                     Den_Activation;
001480 940e 1e73 	CALL SUBOPT_0x16
                 ; 0000 005C                 }
                 ; 0000 005D             }
                 _0x69:
                 ; 0000 005E             else
001482 c009      	RJMP _0x6A
                 _0x68:
                 ; 0000 005F             {
                 ; 0000 0060                 if(Dens.thietbiall != 0x00)
001483 91e0 0529 	LDS  R30,_Dens
001485 30e0      	CPI  R30,0
001486 f029      	BREQ _0x6B
                 ; 0000 0061                 {
                 ; 0000 0062                     Dens.thietbiall=0x00;
001487 e0e0      	LDI  R30,LOW(0)
001488 93e0 0529 	STS  _Dens,R30
                 ; 0000 0063                     Den_Activation;
00148a 940e 1e73 	CALL SUBOPT_0x16
                 ; 0000 0064                 }
                 ; 0000 0065             }
                 _0x6B:
                 _0x6A:
                 ; 0000 0066          }
                 ; 0000 0067          if(flagAutoQuat==1)
                 _0x67:
00148c 91a0 052e 	LDS  R26,_flagAutoQuat
00148e 30a1      	CPI  R26,LOW(0x1)
00148f f4b9      	BRNE _0x6C
                 ; 0000 0068          {
                 ; 0000 0069             if(temperature >= 32)  // neu nhiet do lon hon 32 C thi quat bat
001490 91a0 071e 	LDS  R26,_temperature
001492 32a0      	CPI  R26,LOW(0x20)
001493 f050      	BRLO _0x6D
                 ; 0000 006A             {
                 ; 0000 006B                 if(Quats.thietbiall != 0xFF)
001494 91a0 052a 	LDS  R26,_Quats
001496 3faf      	CPI  R26,LOW(0xFF)
001497 f029      	BREQ _0x6E
                 ; 0000 006C                 {
                 ; 0000 006D                     Quats.thietbiall = 0xFF;
001498 efef      	LDI  R30,LOW(255)
001499 93e0 052a 	STS  _Quats,R30
                 ; 0000 006E                     Quat_Activation;
00149b 940e 1e78 	CALL SUBOPT_0x17
                 ; 0000 006F                 }
                 ; 0000 0070             }
                 _0x6E:
                 ; 0000 0071             else
00149d c009      	RJMP _0x6F
                 _0x6D:
                 ; 0000 0072             {
                 ; 0000 0073                 if(Quats.thietbiall != 0x00)
00149e 91e0 052a 	LDS  R30,_Quats
0014a0 30e0      	CPI  R30,0
0014a1 f029      	BREQ _0x70
                 ; 0000 0074                 {
                 ; 0000 0075                     Quats.thietbiall = 0x00;
0014a2 e0e0      	LDI  R30,LOW(0)
0014a3 93e0 052a 	STS  _Quats,R30
                 ; 0000 0076                     Quat_Activation;
0014a5 940e 1e78 	CALL SUBOPT_0x17
                 ; 0000 0077                 }
                 ; 0000 0078             }
                 _0x70:
                 _0x6F:
                 ; 0000 0079          }
                 ; 0000 007A          if(flagAutoBom==1)
                 _0x6C:
0014a7 91a0 052f 	LDS  R26,_flagAutoBom
0014a9 30a1      	CPI  R26,LOW(0x1)
0014aa f4b9      	BRNE _0x71
                 ; 0000 007B          {
                 ; 0000 007C             if( DoAmDat <= 20)  // neu nho hon 20% thi bom bat
0014ab 91a0 071f 	LDS  R26,_DoAmDat
0014ad 31a5      	CPI  R26,LOW(0x15)
0014ae f450      	BRSH _0x72
                 ; 0000 007D             {
                 ; 0000 007E                 if(Boms.thietbiall != 0xFF)
0014af 91a0 052b 	LDS  R26,_Boms
0014b1 3faf      	CPI  R26,LOW(0xFF)
0014b2 f029      	BREQ _0x73
                 ; 0000 007F                 {
                 ; 0000 0080                     Boms.thietbiall = 0xFF;
0014b3 efef      	LDI  R30,LOW(255)
0014b4 93e0 052b 	STS  _Boms,R30
                 ; 0000 0081                     Bom_Activation;
0014b6 940e 1e7d 	CALL SUBOPT_0x18
                 ; 0000 0082                 }
                 ; 0000 0083             }
                 _0x73:
                 ; 0000 0084             else
0014b8 c009      	RJMP _0x74
                 _0x72:
                 ; 0000 0085             {
                 ; 0000 0086                 if(Boms.thietbiall != 0x00)
0014b9 91e0 052b 	LDS  R30,_Boms
0014bb 30e0      	CPI  R30,0
0014bc f029      	BREQ _0x75
                 ; 0000 0087                 {
                 ; 0000 0088                     Boms.thietbiall = 0x00;
0014bd e0e0      	LDI  R30,LOW(0)
0014be 93e0 052b 	STS  _Boms,R30
                 ; 0000 0089                     Bom_Activation;
0014c0 940e 1e7d 	CALL SUBOPT_0x18
                 ; 0000 008A                 }
                 ; 0000 008B             }
                 _0x75:
                 _0x74:
                 ; 0000 008C          }
                 ; 0000 008D 
                 ; 0000 008E          //menu
                 ; 0000 008F          if(btnMENU == 0)
                 _0x71:
0014c2 9905      	SBIC 0x0,5
0014c3 c1da      	RJMP _0x76
                 ; 0000 0090          {
                 ; 0000 0091             flagMenu=1;
0014c4 e001      	LDI  R16,LOW(1)
                 ; 0000 0092             menu = &MainMenu;
0014c5 e8ec      	LDI  R30,LOW(_MainMenu*2)
0014c6 e0f0      	LDI  R31,HIGH(_MainMenu*2)
0014c7 940e 1f07 	CALL SUBOPT_0x31
                 ; 0000 0093             MenuDisplay(menu,select);
                 ; 0000 0094 
                 ; 0000 0095             while(flagMenu == 1)
                 _0x77:
0014c9 3001      	CPI  R16,1
0014ca f009      	BREQ PC+2
0014cb c1d0      	RJMP _0x79
                 ; 0000 0096             {
                 ; 0000 0097                  uart_handler();
0014cc dd3f      	RCALL _uart_handler
                 ; 0000 0098                  if(btnHOME == 0)
0014cd 9906      	SBIC 0x0,6
0014ce c003      	RJMP _0x7A
                 ; 0000 0099                  {
                 ; 0000 009A                     flagMenu=0;
0014cf e000      	LDI  R16,LOW(0)
                 ; 0000 009B                     while(btnHOME == 0);
                 _0x7B:
0014d0 9b06      	SBIS 0x0,6
0014d1 cffe      	RJMP _0x7B
                 ; 0000 009C                  }
                 ; 0000 009D 
                 ; 0000 009E                  if(btnUP == 0 )
                 _0x7A:
0014d2 9902      	SBIC 0x0,2
0014d3 c00b      	RJMP _0x7E
                 ; 0000 009F                  {
                 ; 0000 00A0                    select = (select==1)?3:select-1;
0014d4 3011      	CPI  R17,1
0014d5 f411      	BRNE _0x7F
0014d6 e0e3      	LDI  R30,LOW(3)
0014d7 c003      	RJMP _0x80
                 _0x7F:
0014d8 2fe1      	MOV  R30,R17
0014d9 e0f0      	LDI  R31,0
0014da 9731      	SBIW R30,1
                 _0x80:
0014db 940e 1f0d 	CALL SUBOPT_0x32
                 ; 0000 00A1                    MenuDisplay(menu,select);
                 ; 0000 00A2 
                 ; 0000 00A3                    while(btnUP == 0);
                 _0x82:
0014dd 9b02      	SBIS 0x0,2
0014de cffe      	RJMP _0x82
                 ; 0000 00A4                  }
                 ; 0000 00A5 
                 ; 0000 00A6                  if(btnDOWN == 0 )
                 _0x7E:
0014df 9903      	SBIC 0x0,3
0014e0 c00b      	RJMP _0x85
                 ; 0000 00A7                  {
                 ; 0000 00A8                    select = (select==3)?1:select+1;
0014e1 3013      	CPI  R17,3
0014e2 f411      	BRNE _0x86
0014e3 e0e1      	LDI  R30,LOW(1)
0014e4 c003      	RJMP _0x87
                 _0x86:
0014e5 2fe1      	MOV  R30,R17
0014e6 e0f0      	LDI  R31,0
0014e7 9631      	ADIW R30,1
                 _0x87:
0014e8 940e 1f0d 	CALL SUBOPT_0x32
                 ; 0000 00A9                    MenuDisplay(menu,select);
                 ; 0000 00AA                    while(btnDOWN == 0);
                 _0x89:
0014ea 9b03      	SBIS 0x0,3
0014eb cffe      	RJMP _0x89
                 ; 0000 00AB                  }
                 ; 0000 00AC 
                 ; 0000 00AD                  if(btnRIGHT == 0 )
                 _0x85:
0014ec 9901      	SBIC 0x0,1
0014ed c038      	RJMP _0x8C
                 ; 0000 00AE                  {
                 ; 0000 00AF                    switch(select)
0014ee 2fe1      	MOV  R30,R17
0014ef 940e 1de4 	CALL SUBOPT_0x3
                 ; 0000 00B0                    {
                 ; 0000 00B1                         case 1:
0014f1 f469      	BRNE _0x90
                 ; 0000 00B2                             menu=(menu->Menulist1 == NULL)?menu:menu->Menulist1;
0014f2 01f9      	MOVW R30,R18
0014f3 96bb      	ADIW R30,43
0014f4 940e 2168 	CALL __GETW2PF
0014f6 9710      	SBIW R26,0
0014f7 f411      	BRNE _0x91
0014f8 01f9      	MOVW R30,R18
0014f9 c004      	RJMP _0x92
                 _0x91:
0014fa 01f9      	MOVW R30,R18
0014fb 96bb      	ADIW R30,43
0014fc 940e 2164 	CALL __GETW1PF
                 _0x92:
0014fe c022      	RJMP _0x168
                 ; 0000 00B3                             break;
                 ; 0000 00B4                         case 2:
                 _0x90:
0014ff 30e2      	CPI  R30,LOW(0x2)
001500 e0a0      	LDI  R26,HIGH(0x2)
001501 07fa      	CPC  R31,R26
001502 f479      	BRNE _0x94
                 ; 0000 00B5                             menu=(menu->Menulist2 == NULL)?menu:menu->Menulist2;
001503 01f9      	MOVW R30,R18
001504 5bed      	SUBI R30,LOW(-67)
001505 4fff      	SBCI R31,HIGH(-67)
001506 940e 2168 	CALL __GETW2PF
001508 9710      	SBIW R26,0
001509 f411      	BRNE _0x95
00150a 01f9      	MOVW R30,R18
00150b c005      	RJMP _0x96
                 _0x95:
00150c 01f9      	MOVW R30,R18
00150d 5bed      	SUBI R30,LOW(-67)
00150e 4fff      	SBCI R31,HIGH(-67)
00150f 940e 2164 	CALL __GETW1PF
                 _0x96:
001511 c00f      	RJMP _0x168
                 ; 0000 00B6                             break;
                 ; 0000 00B7                         case 3:
                 _0x94:
001512 30e3      	CPI  R30,LOW(0x3)
001513 e0a0      	LDI  R26,HIGH(0x3)
001514 07fa      	CPC  R31,R26
001515 f461      	BRNE _0x8F
                 ; 0000 00B8                             menu=(menu->Menulist3 == NULL)?menu:menu->Menulist3;
001516 01f9      	MOVW R30,R18
001517 940e 1f13 	CALL SUBOPT_0x33
001519 f411      	BRNE _0x99
00151a 01f9      	MOVW R30,R18
00151b c005      	RJMP _0x9A
                 _0x99:
00151c 01f9      	MOVW R30,R18
00151d 5ae5      	SUBI R30,LOW(-91)
00151e 4fff      	SBCI R31,HIGH(-91)
00151f 940e 2164 	CALL __GETW1PF
                 _0x9A:
                 _0x168:
001521 019f      	MOVW R18,R30
                 ; 0000 00B9                             break;
                 ; 0000 00BA                    }
                 _0x8F:
                 ; 0000 00BB                    MenuDisplay(menu,select);
001522 940e 1f19 	CALL SUBOPT_0x34
                 ; 0000 00BC                    while(btnRIGHT == 0);
                 _0x9C:
001524 9b01      	SBIS 0x0,1
001525 cffe      	RJMP _0x9C
                 ; 0000 00BD                  }
                 ; 0000 00BE 
                 ; 0000 00BF                  if(btnLEFT == 0 )
                 _0x8C:
001526 9900      	SBIC 0x0,0
001527 c010      	RJMP _0x9F
                 ; 0000 00C0                  {
                 ; 0000 00C1                    menu=(menu->pre == NULL)?menu:menu->pre;
001528 01f9      	MOVW R30,R18
001529 9631      	ADIW R30,1
00152a 940e 2168 	CALL __GETW2PF
00152c 9710      	SBIW R26,0
00152d f411      	BRNE _0xA0
00152e 01f9      	MOVW R30,R18
00152f c004      	RJMP _0xA1
                 _0xA0:
001530 01f9      	MOVW R30,R18
001531 9631      	ADIW R30,1
001532 940e 2164 	CALL __GETW1PF
                 _0xA1:
001534 940e 1f07 	CALL SUBOPT_0x31
                 ; 0000 00C2                    MenuDisplay(menu,select);
                 ; 0000 00C3                    while (btnLEFT == 0);
                 _0xA3:
001536 9b00      	SBIS 0x0,0
001537 cffe      	RJMP _0xA3
                 ; 0000 00C4                  }
                 ; 0000 00C5 
                 ; 0000 00C6                  if(btnGO == 0)
                 _0x9F:
001538 9904      	SBIC 0x0,4
001539 c161      	RJMP _0xA6
                 ; 0000 00C7                  {
                 ; 0000 00C8                    unsigned char flagHengio=0, flagsetTime=0; //flagsetTime = 0 set gio , flagsetTime = 1 set phut
                 ; 0000 00C9                    switch(select)
00153a 9722      	SBIW R28,2
00153b e0e0      	LDI  R30,LOW(0)
00153c 83e8      	ST   Y,R30
00153d 83e9      	STD  Y+1,R30
                 ;	flagHengio -> Y+1
                 ;	flagsetTime -> Y+0
00153e 2fe1      	MOV  R30,R17
00153f 940e 1de4 	CALL SUBOPT_0x3
                 ; 0000 00CA                    {
                 ; 0000 00CB                         case 1:
001541 f009      	BREQ PC+2
001542 c09b      	RJMP _0xAA
                 ; 0000 00CC                             if(menu->ActivationON != NULL)
001543 01f9      	MOVW R30,R18
001544 96bd      	ADIW R30,45
001545 940e 2164 	CALL __GETW1PF
001547 9730      	SBIW R30,0
001548 f079      	BREQ _0xAB
                 ; 0000 00CD                             {
                 ; 0000 00CE                                 menu->ActivationON(menu->menuID,ON);
001549 01f9      	MOVW R30,R18
00154a 91e4      	LPM  R30,Z
00154b 93ea      	ST   -Y,R30
00154c e0a1      	LDI  R26,LOW(1)
00154d 01f9      	MOVW R30,R18
00154e 96bd      	ADIW R30,45
00154f 940e 2164 	CALL __GETW1PF
001551 9509      	ICALL
                 ; 0000 00CF                                 arrStatuTB[menu->menuID]=1;
001552 01f9      	MOVW R30,R18
001553 940e 1f1e 	CALL SUBOPT_0x35
001555 e0a1      	LDI  R26,LOW(1)
001556 83a0      	STD  Z+0,R26
                 ; 0000 00D0                             }
                 ; 0000 00D1                             else if(menu->ActivationSet)
001557 c085      	RJMP _0xAC
                 _0xAB:
001558 940e 1f23 	CALL SUBOPT_0x36
00155a f409      	BRNE PC+2
00155b c081      	RJMP _0xAD
                 ; 0000 00D2                             {
                 ; 0000 00D3                                 while(btnGO == 0);
                 _0xAE:
00155c 9b04      	SBIS 0x0,4
00155d cffe      	RJMP _0xAE
                 ; 0000 00D4                                 flagHengio = 1;
00155e e0e1      	LDI  R30,LOW(1)
00155f 83e9      	STD  Y+1,R30
                 ; 0000 00D5                                 while(flagHengio == 1 ) // vao mode hen gio
                 _0xB1:
001560 81a9      	LDD  R26,Y+1
001561 30a1      	CPI  R26,LOW(0x1)
001562 f009      	BREQ PC+2
001563 c079      	RJMP _0xB3
                 ; 0000 00D6                                 {
                 ; 0000 00D7                                     while(flagsetTime == 0)  // set Gio on
                 _0xB4:
001564 81e8      	LD   R30,Y
001565 30e0      	CPI  R30,0
001566 f569      	BRNE _0xB6
                 ; 0000 00D8                                     {
                 ; 0000 00D9                                         if(btnUP == 0 )
001567 9902      	SBIC 0x0,2
001568 c00d      	RJMP _0xB7
                 ; 0000 00DA                                         {
                 ; 0000 00DB                                             delay_ms(150);
001569 940e 1f2a 	CALL SUBOPT_0x37
                 ; 0000 00DC                                             arrGioOn[menu->menuID]++;
00156b 940e 1f36 	CALL SUBOPT_0x38
                 ; 0000 00DD                                             if(arrGioOn[menu->menuID] > 23)
00156d 5bed      	SUBI R30,LOW(-_arrGioOn)
00156e 4ff9      	SBCI R31,HIGH(-_arrGioOn)
00156f 81a0      	LD   R26,Z
001570 31a8      	CPI  R26,LOW(0x18)
001571 f020      	BRLO _0xB8
                 ; 0000 00DE                                             {
                 ; 0000 00DF                                                 arrGioOn[menu->menuID]=0;
001572 940e 1f3c 	CALL SUBOPT_0x39
001574 e0a0      	LDI  R26,LOW(0)
001575 83a0      	STD  Z+0,R26
                 ; 0000 00E0                                             }
                 ; 0000 00E1                                         }
                 _0xB8:
                 ; 0000 00E2                                         if(btnDOWN == 0 )
                 _0xB7:
001576 9903      	SBIC 0x0,3
001577 c00d      	RJMP _0xB9
                 ; 0000 00E3                                         {
                 ; 0000 00E4                                             delay_ms(150);
001578 940e 1f2a 	CALL SUBOPT_0x37
                 ; 0000 00E5                                             arrGioOn[menu->menuID]--;
00157a 50e1      	SUBI R30,LOW(1)
00157b 93ec      	ST   X,R30
                 ; 0000 00E6                                             if(arrGioOn[menu->menuID] <= 0)
00157c 940e 1f3c 	CALL SUBOPT_0x39
00157e 81a0      	LD   R26,Z
00157f 30a0      	CPI  R26,0
001580 f421      	BRNE _0xBA
                 ; 0000 00E7                                             {
                 ; 0000 00E8                                                 arrGioOn[menu->menuID]=23;
001581 940e 1f3c 	CALL SUBOPT_0x39
001583 e1a7      	LDI  R26,LOW(23)
001584 83a0      	STD  Z+0,R26
                 ; 0000 00E9                                             }
                 ; 0000 00EA                                         }
                 _0xBA:
                 ; 0000 00EB                                         if(btnRIGHT == 0)
                 _0xB9:
001585 9901      	SBIC 0x0,1
001586 c004      	RJMP _0xBB
                 ; 0000 00EC                                         {
                 ; 0000 00ED                                             flagsetTime=1;
001587 e0e1      	LDI  R30,LOW(1)
001588 83e8      	ST   Y,R30
                 ; 0000 00EE                                             while(btnRIGHT == 0); //quay lai ve set phut on
                 _0xBC:
001589 9b01      	SBIS 0x0,1
00158a cffe      	RJMP _0xBC
                 ; 0000 00EF                                         }
                 ; 0000 00F0                                         if(btnGO == 0)
                 _0xBB:
00158b 9904      	SBIC 0x0,4
00158c c004      	RJMP _0xBF
                 ; 0000 00F1                                         {
                 ; 0000 00F2                                             flagHengio=0;
00158d 940e 1f42 	CALL SUBOPT_0x3A
                 ; 0000 00F3                                             flagsetTime=-1;
                 ; 0000 00F4                                             while(btnGO == 0);
                 _0xC0:
00158f 9b04      	SBIS 0x0,4
001590 cffe      	RJMP _0xC0
                 ; 0000 00F5                                         }
                 ; 0000 00F6                                         MenuDisplay(menu,select);
                 _0xBF:
001591 940e 1f19 	CALL SUBOPT_0x34
                 ; 0000 00F7                                     }
001593 cfd0      	RJMP _0xB4
                 _0xB6:
                 ; 0000 00F8                                     while(flagsetTime == 1)  // set  Phut  on
                 _0xC3:
001594 81a8      	LD   R26,Y
001595 30a1      	CPI  R26,LOW(0x1)
001596 f569      	BRNE _0xC5
                 ; 0000 00F9                                     {
                 ; 0000 00FA                                         if(btnUP == 0 )
001597 9902      	SBIC 0x0,2
001598 c00d      	RJMP _0xC6
                 ; 0000 00FB                                         {
                 ; 0000 00FC                                             delay_ms(150);
001599 940e 1f47 	CALL SUBOPT_0x3B
                 ; 0000 00FD                                             arrPhutOn[menu->menuID]++;
00159b 940e 1f36 	CALL SUBOPT_0x38
                 ; 0000 00FE                                             if(arrPhutOn[menu->menuID] > 59)
00159d 59ef      	SUBI R30,LOW(-_arrPhutOn)
00159e 4ff9      	SBCI R31,HIGH(-_arrPhutOn)
00159f 81a0      	LD   R26,Z
0015a0 33ac      	CPI  R26,LOW(0x3C)
0015a1 f020      	BRLO _0xC7
                 ; 0000 00FF                                             {
                 ; 0000 0100                                                 arrPhutOn[menu->menuID]=0;
0015a2 940e 1f53 	CALL SUBOPT_0x3C
0015a4 e0a0      	LDI  R26,LOW(0)
0015a5 83a0      	STD  Z+0,R26
                 ; 0000 0101                                             }
                 ; 0000 0102                                         }
                 _0xC7:
                 ; 0000 0103                                         if(btnDOWN == 0 )
                 _0xC6:
0015a6 9903      	SBIC 0x0,3
0015a7 c00d      	RJMP _0xC8
                 ; 0000 0104                                         {
                 ; 0000 0105                                             delay_ms(150);
0015a8 940e 1f47 	CALL SUBOPT_0x3B
                 ; 0000 0106                                             arrPhutOn[menu->menuID]--;
0015aa 50e1      	SUBI R30,LOW(1)
0015ab 93ec      	ST   X,R30
                 ; 0000 0107                                             if(arrPhutOn[menu->menuID] <= 0)
0015ac 940e 1f53 	CALL SUBOPT_0x3C
0015ae 81a0      	LD   R26,Z
0015af 30a0      	CPI  R26,0
0015b0 f421      	BRNE _0xC9
                 ; 0000 0108                                             {
                 ; 0000 0109                                                 arrPhutOn[menu->menuID]=59;
0015b1 940e 1f53 	CALL SUBOPT_0x3C
0015b3 e3ab      	LDI  R26,LOW(59)
0015b4 83a0      	STD  Z+0,R26
                 ; 0000 010A                                             }
                 ; 0000 010B                                         }
                 _0xC9:
                 ; 0000 010C                                         if(btnLEFT == 0)
                 _0xC8:
0015b5 9900      	SBIC 0x0,0
0015b6 c004      	RJMP _0xCA
                 ; 0000 010D                                         {
                 ; 0000 010E                                             flagsetTime=0;  //quay lai ve set gio on
0015b7 e0e0      	LDI  R30,LOW(0)
0015b8 83e8      	ST   Y,R30
                 ; 0000 010F                                             while(btnLEFT == 0);
                 _0xCB:
0015b9 9b00      	SBIS 0x0,0
0015ba cffe      	RJMP _0xCB
                 ; 0000 0110                                         }
                 ; 0000 0111                                         if(btnGO == 0)
                 _0xCA:
0015bb 9904      	SBIC 0x0,4
0015bc c004      	RJMP _0xCE
                 ; 0000 0112                                         {
                 ; 0000 0113                                             flagHengio=0;
0015bd 940e 1f42 	CALL SUBOPT_0x3A
                 ; 0000 0114                                             flagsetTime=-1;
                 ; 0000 0115                                             while(btnGO == 0);
                 _0xCF:
0015bf 9b04      	SBIS 0x0,4
0015c0 cffe      	RJMP _0xCF
                 ; 0000 0116                                         }
                 ; 0000 0117                                         MenuDisplay(menu,select);
                 _0xCE:
0015c1 940e 1f19 	CALL SUBOPT_0x34
                 ; 0000 0118                                     }
0015c3 cfd0      	RJMP _0xC3
                 _0xC5:
                 ; 0000 0119                                     printf("{\"type\":%d,\"id\":%d,\"gio\":%d,\"phut\":%d}\r\n",hengioOns,menu->menuID,a ...
                +
0015c4 efe6     +LDI R30 , LOW ( 2 * _0x0 + ( 74 ) )
0015c5 e1fe     +LDI R31 , HIGH ( 2 * _0x0 + ( 74 ) )
                 	__POINTW1FN _0x0,74
0015c6 93fa      	ST   -Y,R31
0015c7 93ea      	ST   -Y,R30
                +
0015c8 e0e2     +LDI R30 , LOW ( 0x2 )
0015c9 e0f0     +LDI R31 , HIGH ( 0x2 )
0015ca e060     +LDI R22 , BYTE3 ( 0x2 )
0015cb e070     +LDI R23 , BYTE4 ( 0x2 )
                 	__GETD1N 0x2
0015cc 940e 1f59 	CALL SUBOPT_0x3D
0015ce 940e 1f3c 	CALL SUBOPT_0x39
0015d0 81e0      	LD   R30,Z
0015d1 940e 1dd9 	CALL SUBOPT_0x1
0015d3 940e 1f53 	CALL SUBOPT_0x3C
0015d5 81e0      	LD   R30,Z
0015d6 940e 1dd9 	CALL SUBOPT_0x1
0015d8 e180      	LDI  R24,16
0015d9 940e 1d3b 	CALL _printf
0015db 9662      	ADIW R28,18
                 ; 0000 011A                                 }
0015dc cf83      	RJMP _0xB1
                 _0xB3:
                 ; 0000 011B                             }
                 ; 0000 011C                             break;
                 _0xAD:
                 _0xAC:
0015dd c0b8      	RJMP _0xA9
                 ; 0000 011D                         case 2:
                 _0xAA:
0015de 30e2      	CPI  R30,LOW(0x2)
0015df e0a0      	LDI  R26,HIGH(0x2)
0015e0 07fa      	CPC  R31,R26
0015e1 f009      	BREQ PC+2
0015e2 c09d      	RJMP _0xD2
                 ; 0000 011E                             if(menu->ActivationOFF != NULL)
0015e3 01f9      	MOVW R30,R18
0015e4 5beb      	SUBI R30,LOW(-69)
0015e5 4fff      	SBCI R31,HIGH(-69)
0015e6 940e 2164 	CALL __GETW1PF
0015e8 9730      	SBIW R30,0
0015e9 f081      	BREQ _0xD3
                 ; 0000 011F                             {
                 ; 0000 0120                                 menu->ActivationOFF(menu->menuID,OFF);
0015ea 01f9      	MOVW R30,R18
0015eb 91e4      	LPM  R30,Z
0015ec 93ea      	ST   -Y,R30
0015ed e0a0      	LDI  R26,LOW(0)
0015ee 01f9      	MOVW R30,R18
0015ef 5beb      	SUBI R30,LOW(-69)
0015f0 4fff      	SBCI R31,HIGH(-69)
0015f1 940e 2164 	CALL __GETW1PF
0015f3 9509      	ICALL
                 ; 0000 0121                                 arrStatuTB[menu->menuID]=0;
0015f4 01f9      	MOVW R30,R18
0015f5 940e 1f1e 	CALL SUBOPT_0x35
0015f7 e0a0      	LDI  R26,LOW(0)
0015f8 83a0      	STD  Z+0,R26
                 ; 0000 0122                             }
                 ; 0000 0123                             else if(menu->ActivationSet)
0015f9 c085      	RJMP _0xD4
                 _0xD3:
0015fa 940e 1f23 	CALL SUBOPT_0x36
0015fc f409      	BRNE PC+2
0015fd c081      	RJMP _0xD5
                 ; 0000 0124                             {
                 ; 0000 0125                                 while(btnGO == 0);
                 _0xD6:
0015fe 9b04      	SBIS 0x0,4
0015ff cffe      	RJMP _0xD6
                 ; 0000 0126                                 flagHengio = 1;
001600 e0e1      	LDI  R30,LOW(1)
001601 83e9      	STD  Y+1,R30
                 ; 0000 0127                                 while(flagHengio == 1 )
                 _0xD9:
001602 81a9      	LDD  R26,Y+1
001603 30a1      	CPI  R26,LOW(0x1)
001604 f009      	BREQ PC+2
001605 c079      	RJMP _0xDB
                 ; 0000 0128                                 {
                 ; 0000 0129                                     while(flagsetTime == 0)  // set Gio off
                 _0xDC:
001606 81e8      	LD   R30,Y
001607 30e0      	CPI  R30,0
001608 f569      	BRNE _0xDE
                 ; 0000 012A                                     {
                 ; 0000 012B                                         if(btnUP == 0 )
001609 9902      	SBIC 0x0,2
00160a c00d      	RJMP _0xDF
                 ; 0000 012C                                         {
                 ; 0000 012D                                             delay_ms(150);
00160b 940e 1f5e 	CALL SUBOPT_0x3E
                 ; 0000 012E                                             arrGioOff[menu->menuID]++;
00160d 940e 1f36 	CALL SUBOPT_0x38
                 ; 0000 012F                                             if(arrGioOff[menu->menuID] > 23)
00160f 58e1      	SUBI R30,LOW(-_arrGioOff)
001610 4ff9      	SBCI R31,HIGH(-_arrGioOff)
001611 81a0      	LD   R26,Z
001612 31a8      	CPI  R26,LOW(0x18)
001613 f020      	BRLO _0xE0
                 ; 0000 0130                                             {
                 ; 0000 0131                                                 arrGioOff[menu->menuID]=0;
001614 940e 1f6a 	CALL SUBOPT_0x3F
001616 e0a0      	LDI  R26,LOW(0)
001617 83a0      	STD  Z+0,R26
                 ; 0000 0132                                             }
                 ; 0000 0133                                         }
                 _0xE0:
                 ; 0000 0134                                         if(btnDOWN == 0 )
                 _0xDF:
001618 9903      	SBIC 0x0,3
001619 c00d      	RJMP _0xE1
                 ; 0000 0135                                         {
                 ; 0000 0136                                             delay_ms(150);
00161a 940e 1f5e 	CALL SUBOPT_0x3E
                 ; 0000 0137                                             arrGioOff[menu->menuID]--;
00161c 50e1      	SUBI R30,LOW(1)
00161d 93ec      	ST   X,R30
                 ; 0000 0138                                             if(arrGioOff[menu->menuID] <= 0)
00161e 940e 1f6a 	CALL SUBOPT_0x3F
001620 81a0      	LD   R26,Z
001621 30a0      	CPI  R26,0
001622 f421      	BRNE _0xE2
                 ; 0000 0139                                             {
                 ; 0000 013A                                                 arrGioOff[menu->menuID]=23;
001623 940e 1f6a 	CALL SUBOPT_0x3F
001625 e1a7      	LDI  R26,LOW(23)
001626 83a0      	STD  Z+0,R26
                 ; 0000 013B                                             }
                 ; 0000 013C                                         }
                 _0xE2:
                 ; 0000 013D                                         if(btnRIGHT == 0)
                 _0xE1:
001627 9901      	SBIC 0x0,1
001628 c004      	RJMP _0xE3
                 ; 0000 013E                                         {
                 ; 0000 013F                                             flagsetTime=1;
001629 e0e1      	LDI  R30,LOW(1)
00162a 83e8      	ST   Y,R30
                 ; 0000 0140                                             while(btnRIGHT == 0); //quay lai ve set phut  off
                 _0xE4:
00162b 9b01      	SBIS 0x0,1
00162c cffe      	RJMP _0xE4
                 ; 0000 0141                                         }
                 ; 0000 0142                                         if(btnGO == 0)
                 _0xE3:
00162d 9904      	SBIC 0x0,4
00162e c004      	RJMP _0xE7
                 ; 0000 0143                                         {
                 ; 0000 0144                                             flagHengio=0;
00162f 940e 1f42 	CALL SUBOPT_0x3A
                 ; 0000 0145                                             flagsetTime=-1;
                 ; 0000 0146                                             while(btnGO == 0);
                 _0xE8:
001631 9b04      	SBIS 0x0,4
001632 cffe      	RJMP _0xE8
                 ; 0000 0147                                         }
                 ; 0000 0148                                         MenuDisplay(menu,select);
                 _0xE7:
001633 940e 1f19 	CALL SUBOPT_0x34
                 ; 0000 0149                                     }
001635 cfd0      	RJMP _0xDC
                 _0xDE:
                 ; 0000 014A                                     while(flagsetTime == 1)  // set  Phut   off
                 _0xEB:
001636 81a8      	LD   R26,Y
001637 30a1      	CPI  R26,LOW(0x1)
001638 f569      	BRNE _0xED
                 ; 0000 014B                                     {
                 ; 0000 014C                                         if(btnUP == 0 )
001639 9902      	SBIC 0x0,2
00163a c00d      	RJMP _0xEE
                 ; 0000 014D                                         {
                 ; 0000 014E                                             delay_ms(150);
00163b 940e 1f70 	CALL SUBOPT_0x40
                 ; 0000 014F                                             arrPhutOff[menu->menuID]++;
00163d 940e 1f36 	CALL SUBOPT_0x38
                 ; 0000 0150                                             if(arrPhutOff[menu->menuID] > 59)
00163f 56e3      	SUBI R30,LOW(-_arrPhutOff)
001640 4ff9      	SBCI R31,HIGH(-_arrPhutOff)
001641 81a0      	LD   R26,Z
001642 33ac      	CPI  R26,LOW(0x3C)
001643 f020      	BRLO _0xEF
                 ; 0000 0151                                             {
                 ; 0000 0152                                                 arrPhutOff[menu->menuID]=0;
001644 940e 1f7c 	CALL SUBOPT_0x41
001646 e0a0      	LDI  R26,LOW(0)
001647 83a0      	STD  Z+0,R26
                 ; 0000 0153                                             }
                 ; 0000 0154                                         }
                 _0xEF:
                 ; 0000 0155                                         if(btnDOWN == 0 )
                 _0xEE:
001648 9903      	SBIC 0x0,3
001649 c00d      	RJMP _0xF0
                 ; 0000 0156                                         {
                 ; 0000 0157                                             delay_ms(150);
00164a 940e 1f70 	CALL SUBOPT_0x40
                 ; 0000 0158                                             arrPhutOff[menu->menuID]--;
00164c 50e1      	SUBI R30,LOW(1)
00164d 93ec      	ST   X,R30
                 ; 0000 0159                                             if(arrPhutOff[menu->menuID] <= 0)
00164e 940e 1f7c 	CALL SUBOPT_0x41
001650 81a0      	LD   R26,Z
001651 30a0      	CPI  R26,0
001652 f421      	BRNE _0xF1
                 ; 0000 015A                                             {
                 ; 0000 015B                                                 arrPhutOff[menu->menuID]=59;
001653 940e 1f7c 	CALL SUBOPT_0x41
001655 e3ab      	LDI  R26,LOW(59)
001656 83a0      	STD  Z+0,R26
                 ; 0000 015C                                             }
                 ; 0000 015D                                         }
                 _0xF1:
                 ; 0000 015E                                         if(btnLEFT == 0)
                 _0xF0:
001657 9900      	SBIC 0x0,0
001658 c004      	RJMP _0xF2
                 ; 0000 015F                                         {
                 ; 0000 0160                                             flagsetTime=0;  //quay lai ve set gio off
001659 e0e0      	LDI  R30,LOW(0)
00165a 83e8      	ST   Y,R30
                 ; 0000 0161                                             while(btnLEFT == 0);
                 _0xF3:
00165b 9b00      	SBIS 0x0,0
00165c cffe      	RJMP _0xF3
                 ; 0000 0162                                         }
                 ; 0000 0163                                         if(btnGO == 0)
                 _0xF2:
00165d 9904      	SBIC 0x0,4
00165e c004      	RJMP _0xF6
                 ; 0000 0164                                         {
                 ; 0000 0165                                             flagHengio=0;
00165f 940e 1f42 	CALL SUBOPT_0x3A
                 ; 0000 0166                                             flagsetTime=-1;
                 ; 0000 0167                                             while(btnGO == 0);
                 _0xF7:
001661 9b04      	SBIS 0x0,4
001662 cffe      	RJMP _0xF7
                 ; 0000 0168                                         }
                 ; 0000 0169                                         MenuDisplay(menu,select);
                 _0xF6:
001663 940e 1f19 	CALL SUBOPT_0x34
                 ; 0000 016A                                     }
001665 cfd0      	RJMP _0xEB
                 _0xED:
                 ; 0000 016B                                     printf("{\"type\":%d,\"id\":%d,\"gio\":%d,\"phut\":%d}\r\n",hengioOffs,menu->menuID, ...
                +
001666 efe6     +LDI R30 , LOW ( 2 * _0x0 + ( 74 ) )
001667 e1fe     +LDI R31 , HIGH ( 2 * _0x0 + ( 74 ) )
                 	__POINTW1FN _0x0,74
001668 93fa      	ST   -Y,R31
001669 93ea      	ST   -Y,R30
                +
00166a e0e3     +LDI R30 , LOW ( 0x3 )
00166b e0f0     +LDI R31 , HIGH ( 0x3 )
00166c e060     +LDI R22 , BYTE3 ( 0x3 )
00166d e070     +LDI R23 , BYTE4 ( 0x3 )
                 	__GETD1N 0x3
00166e 940e 1f59 	CALL SUBOPT_0x3D
001670 940e 1f6a 	CALL SUBOPT_0x3F
001672 81e0      	LD   R30,Z
001673 940e 1dd9 	CALL SUBOPT_0x1
001675 940e 1f7c 	CALL SUBOPT_0x41
001677 81e0      	LD   R30,Z
001678 940e 1dd9 	CALL SUBOPT_0x1
00167a e180      	LDI  R24,16
00167b 940e 1d3b 	CALL _printf
00167d 9662      	ADIW R28,18
                 ; 0000 016C                                 }
00167e cf83      	RJMP _0xD9
                 _0xDB:
                 ; 0000 016D                             }
                 ; 0000 016E                             break;
                 _0xD5:
                 _0xD4:
00167f c016      	RJMP _0xA9
                 ; 0000 016F                         case 3:
                 _0xD2:
001680 30e3      	CPI  R30,LOW(0x3)
001681 e0a0      	LDI  R26,HIGH(0x3)
001682 07fa      	CPC  R31,R26
001683 f491      	BRNE _0xA9
                 ; 0000 0170                             if(menu->ActivationSet != NULL)
001684 940e 1f23 	CALL SUBOPT_0x36
001686 f079      	BREQ _0xFB
                 ; 0000 0171                             {
                 ; 0000 0172                                 setValuesInitHengio();
001687 d1ac      	RCALL _setValuesInitHengio
                 ; 0000 0173                                 printf("{\"type\":%d,\"id\":%d}\r\n",deleteHengio,menu->menuID);
                +
001688 e1ef     +LDI R30 , LOW ( 2 * _0x0 + ( 115 ) )
001689 e1ff     +LDI R31 , HIGH ( 2 * _0x0 + ( 115 ) )
                 	__POINTW1FN _0x0,115
00168a 93fa      	ST   -Y,R31
00168b 93ea      	ST   -Y,R30
00168c 940e 1e9e 	CALL SUBOPT_0x1D
00168e 01f9      	MOVW R30,R18
00168f 91e4      	LPM  R30,Z
001690 940e 1dd9 	CALL SUBOPT_0x1
001692 e088      	LDI  R24,8
001693 940e 1d3b 	CALL _printf
001695 962a      	ADIW R28,10
                 ; 0000 0174                             }
                 ; 0000 0175                    }
                 _0xFB:
                 _0xA9:
                 ; 0000 0176 
                 ; 0000 0177                    MenuDisplay(menu,select);
001696 940e 1f19 	CALL SUBOPT_0x34
                 ; 0000 0178                    while(btnGO == 0);
                 _0xFC:
001698 9b04      	SBIS 0x0,4
001699 cffe      	RJMP _0xFC
                 ; 0000 0179                  }
00169a 9622      	ADIW R28,2
                 ; 0000 017A             }
                 _0xA6:
00169b ce2d      	RJMP _0x77
                 _0x79:
                 ; 0000 017B             while(btnMENU == 0);
                 _0xFF:
00169c 9b05      	SBIS 0x0,5
00169d cffe      	RJMP _0xFF
                 ; 0000 017C          }
                 ; 0000 017D          delay_ms(1000);
                 _0x76:
00169e eea8      	LDI  R26,LOW(1000)
00169f e0b3      	LDI  R27,HIGH(1000)
0016a0 940e 210b 	CALL _delay_ms
                 ; 0000 017E     }
0016a2 cdc1      	RJMP _0x64
                 ; 0000 017F }
                 _0x102:
0016a3 cfff      	RJMP _0x102
                 ; .FEND
                 ;
                 ;void valueinitSensor()
                 ; 0000 0182 {
                 _valueinitSensor:
                 ; .FSTART _valueinitSensor
                 ; 0000 0183     //gia tri ban dau
                 ; 0000 0184      arrStatuTB[Device_Temp]=1;
0016a4 e0e1      	LDI  R30,LOW(1)
0016a5 93e0 062a 	STS  _arrStatuTB,R30
                 ; 0000 0185      arrStatuTB[Device_Humi]=1;
                +
0016a7 93e0 062b+STS _arrStatuTB + ( 1 ) , R30
                 	__PUTB1MN _arrStatuTB,1
                 ; 0000 0186      arrStatuTB[Device_DoAmDat]=1;
                +
0016a9 93e0 062c+STS _arrStatuTB + ( 2 ) , R30
                 	__PUTB1MN _arrStatuTB,2
                 ; 0000 0187      arrStatuTB[Device_Mua]=1;
                +
0016ab 93e0 062d+STS _arrStatuTB + ( 3 ) , R30
                 	__PUTB1MN _arrStatuTB,3
                 ; 0000 0188 
                 ; 0000 0189      Sensors.thietbi.TB0=1;
0016ad 91e0 052c 	LDS  R30,_Sensors
0016af 60e1      	ORI  R30,1
0016b0 940e 1f82 	CALL SUBOPT_0x42
                 ; 0000 018A      Sensors.thietbi.TB1=1;
0016b2 60e2      	ORI  R30,2
0016b3 940e 1f82 	CALL SUBOPT_0x42
                 ; 0000 018B      Sensors.thietbi.TB2=1;
0016b5 60e4      	ORI  R30,4
0016b6 940e 1f82 	CALL SUBOPT_0x42
                 ; 0000 018C      Sensors.thietbi.TB3=1;
0016b8 60e8      	ORI  R30,8
0016b9 940e 1ef4 	CALL SUBOPT_0x2D
                 ; 0000 018D      Sensor_Activation;
                 ; 0000 018E }
0016bb 9508      	RET
                 ; .FEND
                 ;
                 ;//void setTime()
                 ;//{
                 ;//    rtc_set_time(h,m,s);
                 ;//    rtc_set_date(thu,d,n,y);
                 ;//}
                 ;
                 ;void getTime()
                 ; 0000 0197 {
                 _getTime:
                 ; .FSTART _getTime
                 ; 0000 0198     rtc_get_time(&h,&m,&s);
0016bc efed      	LDI  R30,LOW(_h)
0016bd e0f6      	LDI  R31,HIGH(_h)
0016be 93fa      	ST   -Y,R31
0016bf 93ea      	ST   -Y,R30
0016c0 efee      	LDI  R30,LOW(_m)
0016c1 e0f6      	LDI  R31,HIGH(_m)
0016c2 93fa      	ST   -Y,R31
0016c3 93ea      	ST   -Y,R30
0016c4 efac      	LDI  R26,LOW(_s)
0016c5 e0b6      	LDI  R27,HIGH(_s)
0016c6 940e 1d74 	CALL _rtc_get_time
                 ; 0000 0199     rtc_get_date(&thu,&d,&n,&y);
0016c8 efef      	LDI  R30,LOW(_thu)
0016c9 e0f6      	LDI  R31,HIGH(_thu)
0016ca 93fa      	ST   -Y,R31
0016cb 93ea      	ST   -Y,R30
0016cc e0e0      	LDI  R30,LOW(_d)
0016cd e0f7      	LDI  R31,HIGH(_d)
0016ce 93fa      	ST   -Y,R31
0016cf 93ea      	ST   -Y,R30
0016d0 e0e1      	LDI  R30,LOW(_n)
0016d1 e0f7      	LDI  R31,HIGH(_n)
0016d2 93fa      	ST   -Y,R31
0016d3 93ea      	ST   -Y,R30
0016d4 e0a2      	LDI  R26,LOW(_y)
0016d5 e0b7      	LDI  R27,HIGH(_y)
0016d6 940e 1d8d 	CALL _rtc_get_date
                 ; 0000 019A }
0016d8 9508      	RET
                 ; .FEND
                 ;
                 ;void MenuDisplay(flash struct Menu *menu,unsigned char select){
                 ; 0000 019C void MenuDisplay(flash struct Menu *menu,unsigned char select){
                 _MenuDisplay:
                 ; .FSTART _MenuDisplay
                 ; 0000 019D 
                 ; 0000 019E     PrintFlash(menu->Title,0,0);
0016d9 93aa      	ST   -Y,R26
                 ;	*menu -> Y+1
                 ;	select -> Y+0
0016da 81e9      	LDD  R30,Y+1
0016db 81fa      	LDD  R31,Y+1+1
0016dc 9633      	ADIW R30,3
0016dd 93fa      	ST   -Y,R31
0016de 93ea      	ST   -Y,R30
0016df e0e0      	LDI  R30,LOW(0)
0016e0 940e 1f85 	CALL SUBOPT_0x43
                 ; 0000 019F 
                 ; 0000 01A0     if( menu->ActivationSet != NULL && menu->Menulist3 == NULL && menu->ActivationON == NULL && menu->ActivationOFF == N ...
0016e2 5ae3      	SUBI R30,LOW(-93)
0016e3 4fff      	SBCI R31,HIGH(-93)
0016e4 940e 2168 	CALL __GETW2PF
0016e6 9710      	SBIW R26,0
0016e7 f0a1      	BREQ _0x104
0016e8 81e9      	LDD  R30,Y+1
0016e9 81fa      	LDD  R31,Y+1+1
0016ea 940e 1f13 	CALL SUBOPT_0x33
0016ec f479      	BRNE _0x104
0016ed 81e9      	LDD  R30,Y+1
0016ee 81fa      	LDD  R31,Y+1+1
0016ef 96bd      	ADIW R30,45
0016f0 940e 2168 	CALL __GETW2PF
0016f2 9710      	SBIW R26,0
0016f3 f441      	BRNE _0x104
0016f4 81e9      	LDD  R30,Y+1
0016f5 81fa      	LDD  R31,Y+1+1
0016f6 5beb      	SUBI R30,LOW(-69)
0016f7 4fff      	SBCI R31,HIGH(-69)
0016f8 940e 2168 	CALL __GETW2PF
0016fa 9710      	SBIW R26,0
0016fb f009      	BREQ _0x105
                 _0x104:
0016fc c02c      	RJMP _0x103
                 _0x105:
                 ; 0000 01A1     {
                 ; 0000 01A2         sprintf(display_buffer," ON  H:%d, M:%d    ",arrGioOn[menu->menuID],arrPhutOn[menu->menuID]);
0016fd 940e 1f8c 	CALL SUBOPT_0x44
                +
0016ff e3e5     +LDI R30 , LOW ( 2 * _0x0 + ( 137 ) )
001700 e1ff     +LDI R31 , HIGH ( 2 * _0x0 + ( 137 ) )
                 	__POINTW1FN _0x0,137
001701 940e 1f91 	CALL SUBOPT_0x45
001703 5bed      	SUBI R30,LOW(-_arrGioOn)
001704 4ff9      	SBCI R31,HIGH(-_arrGioOn)
001705 81e0      	LD   R30,Z
001706 940e 1dd9 	CALL SUBOPT_0x1
001708 85e9      	LDD  R30,Y+9
001709 85fa      	LDD  R31,Y+9+1
00170a 91e4      	LPM  R30,Z
00170b 940e 1f98 	CALL SUBOPT_0x46
00170d 940e 1dd9 	CALL SUBOPT_0x1
00170f 940e 1f9d 	CALL SUBOPT_0x47
                 ; 0000 01A3         Print(display_buffer,1,0);
001711 940e 1fa2 	CALL SUBOPT_0x48
                 ; 0000 01A4         sprintf(display_buffer," OFF H:%d, M:%d    ",arrGioOff[menu->menuID],arrPhutOff[menu->menuID]);
                +
001713 e4e9     +LDI R30 , LOW ( 2 * _0x0 + ( 157 ) )
001714 e1ff     +LDI R31 , HIGH ( 2 * _0x0 + ( 157 ) )
                 	__POINTW1FN _0x0,157
001715 940e 1f91 	CALL SUBOPT_0x45
001717 58e1      	SUBI R30,LOW(-_arrGioOff)
001718 4ff9      	SBCI R31,HIGH(-_arrGioOff)
001719 81e0      	LD   R30,Z
00171a 940e 1dd9 	CALL SUBOPT_0x1
00171c 85e9      	LDD  R30,Y+9
00171d 85fa      	LDD  R31,Y+9+1
00171e 91e4      	LPM  R30,Z
00171f 940e 1fa8 	CALL SUBOPT_0x49
001721 940e 1dd9 	CALL SUBOPT_0x1
001723 940e 1f9d 	CALL SUBOPT_0x47
                 ; 0000 01A5         Print(display_buffer,2,0);
001725 e0e2      	LDI  R30,LOW(2)
001726 940e 1fad 	CALL SUBOPT_0x4A
                 ; 0000 01A6     }
                 ; 0000 01A7     else
001728 c00e      	RJMP _0x106
                 _0x103:
                 ; 0000 01A8     {
                 ; 0000 01A9         PrintFlash(menu->List1,1,0);
001729 81e9      	LDD  R30,Y+1
00172a 81fa      	LDD  R31,Y+1+1
00172b 9677      	ADIW R30,23
00172c 93fa      	ST   -Y,R31
00172d 93ea      	ST   -Y,R30
00172e e0e1      	LDI  R30,LOW(1)
00172f 940e 1f85 	CALL SUBOPT_0x43
                 ; 0000 01AA         PrintFlash(menu->List2,2,0);
001731 96bf      	ADIW R30,47
001732 93fa      	ST   -Y,R31
001733 93ea      	ST   -Y,R30
001734 e0e2      	LDI  R30,LOW(2)
001735 940e 1fb1 	CALL SUBOPT_0x4B
                 ; 0000 01AB     }
                 _0x106:
                 ; 0000 01AC 
                 ; 0000 01AD     if(menu->Menulist1 == NULL && menu->Menulist2 == NULL && menu->Menulist3 == NULL && menu->ActivationSet == NULL  )
001737 81e9      	LDD  R30,Y+1
001738 81fa      	LDD  R31,Y+1+1
001739 96bb      	ADIW R30,43
00173a 940e 2168 	CALL __GETW2PF
00173c 9710      	SBIW R26,0
00173d f4a9      	BRNE _0x108
00173e 81e9      	LDD  R30,Y+1
00173f 81fa      	LDD  R31,Y+1+1
001740 5bed      	SUBI R30,LOW(-67)
001741 4fff      	SBCI R31,HIGH(-67)
001742 940e 2168 	CALL __GETW2PF
001744 9710      	SBIW R26,0
001745 f469      	BRNE _0x108
001746 81e9      	LDD  R30,Y+1
001747 81fa      	LDD  R31,Y+1+1
001748 940e 1f13 	CALL SUBOPT_0x33
00174a f441      	BRNE _0x108
00174b 81e9      	LDD  R30,Y+1
00174c 81fa      	LDD  R31,Y+1+1
00174d 5ae3      	SUBI R30,LOW(-93)
00174e 4fff      	SBCI R31,HIGH(-93)
00174f 940e 2168 	CALL __GETW2PF
001751 9710      	SBIW R26,0
001752 f009      	BREQ _0x109
                 _0x108:
001753 c012      	RJMP _0x107
                 _0x109:
                 ; 0000 01AE     {
                 ; 0000 01AF         if(arrStatuTB[menu->menuID]==0)
001754 81e9      	LDD  R30,Y+1
001755 81fa      	LDD  R31,Y+1+1
001756 940e 1f1e 	CALL SUBOPT_0x35
001758 81e0      	LD   R30,Z
001759 30e0      	CPI  R30,0
00175a f419      	BRNE _0x10A
                 ; 0000 01B0         {
                 ; 0000 01B1            Print("  Trang Thai: OFF  ",3,0);
                +
00175b e0e0     +LDI R30 , LOW ( _0x10B + ( 0 ) )
00175c e0f5     +LDI R31 , HIGH ( _0x10B + ( 0 ) )
                 	__POINTW1MN _0x10B,0
00175d c002      	RJMP _0x169
                 ; 0000 01B2         }
                 ; 0000 01B3         else
                 _0x10A:
                 ; 0000 01B4         {
                 ; 0000 01B5            Print("  Trang Thai: ON   ",3,0);
                +
00175e e1e4     +LDI R30 , LOW ( _0x10B + ( 20 ) )
00175f e0f5     +LDI R31 , HIGH ( _0x10B + ( 20 ) )
                 	__POINTW1MN _0x10B,20
                 _0x169:
001760 93fa      	ST   -Y,R31
001761 93ea      	ST   -Y,R30
001762 e0e3      	LDI  R30,LOW(3)
001763 940e 1fad 	CALL SUBOPT_0x4A
                 ; 0000 01B6         }
                 ; 0000 01B7     }
                 ; 0000 01B8     else
001765 c009      	RJMP _0x10D
                 _0x107:
                 ; 0000 01B9     {
                 ; 0000 01BA         PrintFlash(menu->List3,3,0);
001766 81e9      	LDD  R30,Y+1
001767 81fa      	LDD  R31,Y+1+1
001768 5be9      	SUBI R30,LOW(-71)
001769 4fff      	SBCI R31,HIGH(-71)
00176a 93fa      	ST   -Y,R31
00176b 93ea      	ST   -Y,R30
00176c e0e3      	LDI  R30,LOW(3)
00176d 940e 1fb1 	CALL SUBOPT_0x4B
                 ; 0000 01BB     }
                 _0x10D:
                 ; 0000 01BC 
                 ; 0000 01BD     PrintFlash(">",select,0);
                +
00176f e8e5     +LDI R30 , LOW ( 2 * _0x0 + ( 217 ) )
001770 e1ff     +LDI R31 , HIGH ( 2 * _0x0 + ( 217 ) )
                 	__POINTW1FN _0x0,217
001771 93fa      	ST   -Y,R31
001772 93ea      	ST   -Y,R30
001773 81ea      	LDD  R30,Y+2
001774 940e 1fb1 	CALL SUBOPT_0x4B
                 ; 0000 01BE }
001776 9623      	ADIW R28,3
001777 9508      	RET
                 ; .FEND
                 
                 	.DSEG
                 _0x10B:
000500           	.BYTE 0x28
                 ;
                 ;void screenMainDisplay()
                 ; 0000 01C1 {
                 
                 	.CSEG
                 _screenMainDisplay:
                 ; .FSTART _screenMainDisplay
                 ; 0000 01C2     sprintf(display_buffer,"  Time: %2d:%02d:%02d   ",h,m,s);
001778 940e 1f8c 	CALL SUBOPT_0x44
                +
00177a e8e7     +LDI R30 , LOW ( 2 * _0x0 + ( 219 ) )
00177b e1ff     +LDI R31 , HIGH ( 2 * _0x0 + ( 219 ) )
                 	__POINTW1FN _0x0,219
00177c 93fa      	ST   -Y,R31
00177d 93ea      	ST   -Y,R30
00177e 91e0 06fd 	LDS  R30,_h
001780 940e 1dd9 	CALL SUBOPT_0x1
001782 91e0 06fe 	LDS  R30,_m
001784 940e 1dd9 	CALL SUBOPT_0x1
001786 91e0 06fc 	LDS  R30,_s
001788 940e 1dd9 	CALL SUBOPT_0x1
00178a e08c      	LDI  R24,12
00178b 940e 1d0d 	CALL _sprintf
00178d 9660      	ADIW R28,16
                 ; 0000 01C3     Print(display_buffer,0,0);
00178e 940e 1f8c 	CALL SUBOPT_0x44
001790 e0e0      	LDI  R30,LOW(0)
001791 940e 1fad 	CALL SUBOPT_0x4A
                 ; 0000 01C4     sprintf(display_buffer," Thu %d,%2d/%02d/%d   ",thu,n,d,2000+y);
001793 940e 1f8c 	CALL SUBOPT_0x44
                +
001795 eae0     +LDI R30 , LOW ( 2 * _0x0 + ( 244 ) )
001796 e1ff     +LDI R31 , HIGH ( 2 * _0x0 + ( 244 ) )
                 	__POINTW1FN _0x0,244
001797 93fa      	ST   -Y,R31
001798 93ea      	ST   -Y,R30
001799 91e0 06ff 	LDS  R30,_thu
00179b 940e 1dd9 	CALL SUBOPT_0x1
00179d 91e0 0701 	LDS  R30,_n
00179f 940e 1dd9 	CALL SUBOPT_0x1
0017a1 91e0 0700 	LDS  R30,_d
0017a3 940e 1dd9 	CALL SUBOPT_0x1
0017a5 91e0 0702 	LDS  R30,_y
0017a7 e0f0      	LDI  R31,0
0017a8 53e0      	SUBI R30,LOW(-2000)
0017a9 4ff8      	SBCI R31,HIGH(-2000)
0017aa 940e 1fb5 	CALL SUBOPT_0x4C
0017ac 940e 1fba 	CALL SUBOPT_0x4D
                 ; 0000 01C5     Print(display_buffer,1,0);
0017ae 940e 1fa2 	CALL SUBOPT_0x48
                 ; 0000 01C6     //NhietdoVadoam();
                 ; 0000 01C7     //kiem tra loi
                 ; 0000 01C8 //    if( (I_RH + D_RH + I_Temp + D_Temp) != CheckSum )
                 ; 0000 01C9 //    {
                 ; 0000 01CA //    }
                 ; 0000 01CB //    else
                 ; 0000 01CC //    {
                 ; 0000 01CD //       sprintf(display_buffer," T: %d%d.0 C  H: %d.%d ",temperature/10,temperature%10,doam,D_RH);
                 ; 0000 01CE //       Print(display_buffer,2,0);
                 ; 0000 01CF //    }
                 ; 0000 01D0     sprintf(display_buffer," T: %d%d.0 C  H: %d.%d ",temperature/10,temperature%10,doam,D_RH);
                +
0017b0 ebe7     +LDI R30 , LOW ( 2 * _0x0 + ( 267 ) )
0017b1 e1ff     +LDI R31 , HIGH ( 2 * _0x0 + ( 267 ) )
                 	__POINTW1FN _0x0,267
0017b2 93fa      	ST   -Y,R31
0017b3 93ea      	ST   -Y,R30
0017b4 91a0 071e 	LDS  R26,_temperature
0017b6 e0b0      	LDI  R27,0
0017b7 e0ea      	LDI  R30,LOW(10)
0017b8 e0f0      	LDI  R31,HIGH(10)
0017b9 940e 213f 	CALL __DIVW21
0017bb 940e 1fb5 	CALL SUBOPT_0x4C
0017bd 91a0 071e 	LDS  R26,_temperature
0017bf 27bb      	CLR  R27
0017c0 e0ea      	LDI  R30,LOW(10)
0017c1 e0f0      	LDI  R31,HIGH(10)
0017c2 940e 2144 	CALL __MODW21
0017c4 940e 1fb5 	CALL SUBOPT_0x4C
0017c6 91e0 071c 	LDS  R30,_doam
0017c8 91f0 071d 	LDS  R31,_doam+1
0017ca 940e 1fb5 	CALL SUBOPT_0x4C
0017cc 91e0 0718 	LDS  R30,_D_RH
0017ce 940e 1dd9 	CALL SUBOPT_0x1
0017d0 940e 1fba 	CALL SUBOPT_0x4D
                 ; 0000 01D1     Print(display_buffer,2,0);
0017d2 e0e2      	LDI  R30,LOW(2)
0017d3 940e 1fad 	CALL SUBOPT_0x4A
                 ; 0000 01D2     if(CamBienMua==0)
0017d5 91e0 0720 	LDS  R30,_CamBienMua
0017d7 30e0      	CPI  R30,0
0017d8 f429      	BRNE _0x10E
                 ; 0000 01D3     {
                 ; 0000 01D4         sprintf(display_buffer," DAD:%d ,KHONG MUA ",DoAmDat);
0017d9 940e 1f8c 	CALL SUBOPT_0x44
                +
0017db ecef     +LDI R30 , LOW ( 2 * _0x0 + ( 291 ) )
0017dc e1ff     +LDI R31 , HIGH ( 2 * _0x0 + ( 291 ) )
                 	__POINTW1FN _0x0,291
0017dd c004      	RJMP _0x16A
                 ; 0000 01D5         Print(display_buffer,3,0);
                 ; 0000 01D6     }
                 ; 0000 01D7     else
                 _0x10E:
                 ; 0000 01D8     {
                 ; 0000 01D9         sprintf(display_buffer," DAD:%d , MUA      ",DoAmDat);
0017de 940e 1f8c 	CALL SUBOPT_0x44
                +
0017e0 eee3     +LDI R30 , LOW ( 2 * _0x0 + ( 311 ) )
0017e1 e1ff     +LDI R31 , HIGH ( 2 * _0x0 + ( 311 ) )
                 	__POINTW1FN _0x0,311
                 _0x16A:
0017e2 93fa      	ST   -Y,R31
0017e3 93ea      	ST   -Y,R30
0017e4 91e0 071f 	LDS  R30,_DoAmDat
0017e6 940e 1dd9 	CALL SUBOPT_0x1
0017e8 e084      	LDI  R24,4
0017e9 940e 1d0d 	CALL _sprintf
0017eb 9628      	ADIW R28,8
                 ; 0000 01DA         Print(display_buffer,3,0);
0017ec 940e 1f8c 	CALL SUBOPT_0x44
0017ee e0e3      	LDI  R30,LOW(3)
0017ef 940e 1fad 	CALL SUBOPT_0x4A
                 ; 0000 01DB     }
                 ; 0000 01DC }
0017f1 9508      	RET
                 ; .FEND
                 ;
                 ;void NhietdoVadoam()
                 ; 0000 01DF {
                 _NhietdoVadoam:
                 ; .FSTART _NhietdoVadoam
                 ; 0000 01E0     //gui xung start
                 ; 0000 01E1     Request();
0017f2 940e 1b0c 	CALL _Request
                 ; 0000 01E2     //doi xung phan hoi
                 ; 0000 01E3     Response();
0017f4 940e 1b14 	CALL _Response
                 ; 0000 01E4     //doc 40bits data tu cam bien
                 ; 0000 01E5     I_RH = Receive_data();
0017f6 940e 1b1c 	CALL _Receive_data
0017f8 93e0 0717 	STS  _I_RH,R30
                 ; 0000 01E6     D_RH = Receive_data();
0017fa 940e 1b1c 	CALL _Receive_data
0017fc 93e0 0718 	STS  _D_RH,R30
                 ; 0000 01E7     I_Temp = Receive_data();
0017fe 940e 1b1c 	CALL _Receive_data
001800 93e0 0719 	STS  _I_Temp,R30
                 ; 0000 01E8     D_Temp = Receive_data();
001802 940e 1b1c 	CALL _Receive_data
001804 93e0 071a 	STS  _D_Temp,R30
                 ; 0000 01E9     CheckSum = Receive_data();
001806 940e 1b1c 	CALL _Receive_data
001808 93e0 071b 	STS  _CheckSum,R30
                 ; 0000 01EA     temperature = read_adc(7);
00180a e0a7      	LDI  R26,LOW(7)
00180b dbff      	RCALL _read_adc
00180c 93e0 071e 	STS  _temperature,R30
                 ; 0000 01EB 
                 ; 0000 01EC     doam =(int)I_RH;  //do am hien thi tren lcd
00180e 91e0 0717 	LDS  R30,_I_RH
001810 e0f0      	LDI  R31,0
001811 93e0 071c 	STS  _doam,R30
001813 93f0 071d 	STS  _doam+1,R31
                 ; 0000 01ED     printf("{\"type\":%d,\"temp\":%d,\"humi\":%d,\"dad\":%d,\"cbmua\":%d}\r\n",sensors,temperature,I_RH,DoAmDat,CamBienM ...
                +
001815 efe7     +LDI R30 , LOW ( 2 * _0x0 + ( 331 ) )
001816 e1ff     +LDI R31 , HIGH ( 2 * _0x0 + ( 331 ) )
                 	__POINTW1FN _0x0,331
001817 93fa      	ST   -Y,R31
001818 93ea      	ST   -Y,R30
                +
001819 e0e0     +LDI R30 , LOW ( 0x0 )
00181a e0f0     +LDI R31 , HIGH ( 0x0 )
00181b e060     +LDI R22 , BYTE3 ( 0x0 )
00181c e070     +LDI R23 , BYTE4 ( 0x0 )
                 	__GETD1N 0x0
00181d 940e 216b 	CALL __PUTPARD1
00181f 91e0 071e 	LDS  R30,_temperature
001821 940e 1dd9 	CALL SUBOPT_0x1
001823 91e0 0717 	LDS  R30,_I_RH
001825 940e 1dd9 	CALL SUBOPT_0x1
001827 91e0 071f 	LDS  R30,_DoAmDat
001829 940e 1dd9 	CALL SUBOPT_0x1
00182b 91e0 0720 	LDS  R30,_CamBienMua
00182d 940e 1dd9 	CALL SUBOPT_0x1
00182f e184      	LDI  R24,20
001830 940e 1d3b 	CALL _printf
001832 9666      	ADIW R28,22
                 ; 0000 01EE }
001833 9508      	RET
                 ; .FEND
                 ;
                 ;
                 ;void setValuesInitHengio()
                 ; 0000 01F2 {
                 _setValuesInitHengio:
                 ; .FSTART _setValuesInitHengio
                 ; 0000 01F3     unsigned char j;
                 ; 0000 01F4    //set gia tri ban dau cho hen gio
                 ; 0000 01F5     for(j=0;j <= 26;j++)
001834 931a      	ST   -Y,R17
                 ;	j -> R17
001835 e010      	LDI  R17,LOW(0)
                 _0x111:
001836 311b      	CPI  R17,27
001837 f4a0      	BRSH _0x112
                 ; 0000 01F6     {
                 ; 0000 01F7         arrGioOn[j]=70;
001838 940e 1fbf 	CALL SUBOPT_0x4E
00183a 940e 1fc4 	CALL SUBOPT_0x4F
                 ; 0000 01F8         arrPhutOn[j]=70;
00183c 59ef      	SUBI R30,LOW(-_arrPhutOn)
00183d 4ff9      	SBCI R31,HIGH(-_arrPhutOn)
00183e 940e 1fc4 	CALL SUBOPT_0x4F
                 ; 0000 01F9         arrGioOff[j]=70;
001840 58e1      	SUBI R30,LOW(-_arrGioOff)
001841 4ff9      	SBCI R31,HIGH(-_arrGioOff)
001842 940e 1fc4 	CALL SUBOPT_0x4F
                 ; 0000 01FA         arrPhutOff[j]=70;
001844 56e3      	SUBI R30,LOW(-_arrPhutOff)
001845 4ff9      	SBCI R31,HIGH(-_arrPhutOff)
001846 940e 1fc4 	CALL SUBOPT_0x4F
                 ; 0000 01FB         arrFlagHenGio[j]=0;
001848 940e 1fc9 	CALL SUBOPT_0x50
                 ; 0000 01FC     }
00184a 5f1f      	SUBI R17,-1
00184b cfea      	RJMP _0x111
                 _0x112:
                 ; 0000 01FD }
00184c c26e      	RJMP _0x20A0004
                 ; .FEND
                 ;
                 ;void checkHengioDen(unsigned char tb, unsigned char gioOn, unsigned char phutOn, unsigned char gioOff, unsigned char phu ...
                 ; 0000 0200 {
                 _checkHengioDen:
                 ; .FSTART _checkHengioDen
                 ; 0000 0201     if(h == gioOn && m == phutOn && flagStatus == 0)
00184d 940e 1fce 	CALL SUBOPT_0x51
                 ;	tb -> Y+6
                 ;	gioOn -> Y+5
                 ;	phutOn -> Y+4
                 ;	gioOff -> Y+3
                 ;	phutOff -> Y+2
                 ;	flagStatus -> Y+1
                 ;	id -> Y+0
00184f f431      	BRNE _0x114
001850 940e 1fd4 	CALL SUBOPT_0x52
001852 f419      	BRNE _0x114
001853 81a9      	LDD  R26,Y+1
001854 30a0      	CPI  R26,LOW(0x0)
001855 f009      	BREQ _0x115
                 _0x114:
001856 c02e      	RJMP _0x113
                 _0x115:
                 ; 0000 0202     {
                 ; 0000 0203             if(tb == 0)
001857 81ee      	LDD  R30,Y+6
001858 30e0      	CPI  R30,0
001859 f451      	BRNE _0x116
                 ; 0000 0204             {
                 ; 0000 0205                //arrStatuTB[Device_Den_Khu1] = 1;
                 ; 0000 0206                Dens.thietbi.TB0 = 1;
00185a 91e0 0529 	LDS  R30,_Dens
00185c 60e1      	ORI  R30,1
00185d 940e 1fd9 	CALL SUBOPT_0x53
                 ; 0000 0207                printf( "{\"type\":%d,\"id\":%d,\"status\":%d}\r\n" , statusTB, Device_Den_Khu1 , ON );
                +
00185f e0e4     +LDI R30 , LOW ( 0x4 )
001860 e0f0     +LDI R31 , HIGH ( 0x4 )
001861 e060     +LDI R22 , BYTE3 ( 0x4 )
001862 e070     +LDI R23 , BYTE4 ( 0x4 )
                 	__GETD1N 0x4
001863 c019      	RJMP _0x16B
                 ; 0000 0208             }
                 ; 0000 0209             else if(tb == 1)
                 _0x116:
001864 81ae      	LDD  R26,Y+6
001865 30a1      	CPI  R26,LOW(0x1)
001866 f451      	BRNE _0x118
                 ; 0000 020A             {
                 ; 0000 020B                //arrStatuTB[Device_Den_Khu2] = 1;
                 ; 0000 020C                Dens.thietbi.TB1 = 1;
001867 91e0 0529 	LDS  R30,_Dens
001869 60e2      	ORI  R30,2
00186a 940e 1fd9 	CALL SUBOPT_0x53
                 ; 0000 020D                printf( "{\"type\":%d,\"id\":%d,\"status\":%d}\r\n" , statusTB, Device_Den_Khu2 , ON );
                +
00186c e0e5     +LDI R30 , LOW ( 0x5 )
00186d e0f0     +LDI R31 , HIGH ( 0x5 )
00186e e060     +LDI R22 , BYTE3 ( 0x5 )
00186f e070     +LDI R23 , BYTE4 ( 0x5 )
                 	__GETD1N 0x5
001870 c00c      	RJMP _0x16B
                 ; 0000 020E             }
                 ; 0000 020F             else if(tb == 2)
                 _0x118:
001871 81ae      	LDD  R26,Y+6
001872 30a2      	CPI  R26,LOW(0x2)
001873 f469      	BRNE _0x11A
                 ; 0000 0210             {
                 ; 0000 0211                //arrStatuTB[Device_Den_Khu3] = 1;
                 ; 0000 0212                Dens.thietbi.TB2 = 1;
001874 91e0 0529 	LDS  R30,_Dens
001876 60e4      	ORI  R30,4
001877 940e 1fd9 	CALL SUBOPT_0x53
                 ; 0000 0213                printf( "{\"type\":%d,\"id\":%d,\"status\":%d}\r\n" , statusTB, Device_Den_Khu3 , ON );
                +
001879 e0e6     +LDI R30 , LOW ( 0x6 )
00187a e0f0     +LDI R31 , HIGH ( 0x6 )
00187b e060     +LDI R22 , BYTE3 ( 0x6 )
00187c e070     +LDI R23 , BYTE4 ( 0x6 )
                 	__GETD1N 0x6
                 _0x16B:
00187d 940e 216b 	CALL __PUTPARD1
00187f 940e 1ea5 	CALL SUBOPT_0x1E
                 ; 0000 0214             }
                 ; 0000 0215 
                 ; 0000 0216             Den_Activation;
                 _0x11A:
001881 940e 1e73 	CALL SUBOPT_0x16
                 ; 0000 0217             arrFlagHenGio[id] = 1;
001883 940e 1fdc 	CALL SUBOPT_0x54
                 ; 0000 0218     }
                 ; 0000 0219     if(h == gioOff && m == phutOff && flagStatus == 1)
                 _0x113:
001885 940e 1fe3 	CALL SUBOPT_0x55
001887 f431      	BRNE _0x11C
001888 940e 1fe8 	CALL SUBOPT_0x56
00188a f419      	BRNE _0x11C
00188b 81a9      	LDD  R26,Y+1
00188c 30a1      	CPI  R26,LOW(0x1)
00188d f009      	BREQ _0x11D
                 _0x11C:
00188e c02e      	RJMP _0x11B
                 _0x11D:
                 ; 0000 021A     {
                 ; 0000 021B             if(tb == 0)
00188f 81ee      	LDD  R30,Y+6
001890 30e0      	CPI  R30,0
001891 f451      	BRNE _0x11E
                 ; 0000 021C             {
                 ; 0000 021D                //arrStatuTB[Device_Den_Khu1] = 1;
                 ; 0000 021E                Dens.thietbi.TB0 = 0;
001892 91e0 0529 	LDS  R30,_Dens
001894 7fee      	ANDI R30,0xFE
001895 940e 1fd9 	CALL SUBOPT_0x53
                 ; 0000 021F                printf( "{\"type\":%d,\"id\":%d,\"status\":%d}\r\n" , statusTB, Device_Den_Khu1 , OFF );
                +
001897 e0e4     +LDI R30 , LOW ( 0x4 )
001898 e0f0     +LDI R31 , HIGH ( 0x4 )
001899 e060     +LDI R22 , BYTE3 ( 0x4 )
00189a e070     +LDI R23 , BYTE4 ( 0x4 )
                 	__GETD1N 0x4
00189b c019      	RJMP _0x16C
                 ; 0000 0220             }
                 ; 0000 0221             else if(tb == 1)
                 _0x11E:
00189c 81ae      	LDD  R26,Y+6
00189d 30a1      	CPI  R26,LOW(0x1)
00189e f451      	BRNE _0x120
                 ; 0000 0222             {
                 ; 0000 0223                //arrStatuTB[Device_Den_Khu2] = 1;
                 ; 0000 0224                Dens.thietbi.TB1 =0;
00189f 91e0 0529 	LDS  R30,_Dens
0018a1 7fed      	ANDI R30,0xFD
0018a2 940e 1fd9 	CALL SUBOPT_0x53
                 ; 0000 0225                printf( "{\"type\":%d,\"id\":%d,\"status\":%d}\r\n" , statusTB, Device_Den_Khu2 , OFF );
                +
0018a4 e0e5     +LDI R30 , LOW ( 0x5 )
0018a5 e0f0     +LDI R31 , HIGH ( 0x5 )
0018a6 e060     +LDI R22 , BYTE3 ( 0x5 )
0018a7 e070     +LDI R23 , BYTE4 ( 0x5 )
                 	__GETD1N 0x5
0018a8 c00c      	RJMP _0x16C
                 ; 0000 0226             }
                 ; 0000 0227             else if(tb == 2)
                 _0x120:
0018a9 81ae      	LDD  R26,Y+6
0018aa 30a2      	CPI  R26,LOW(0x2)
0018ab f469      	BRNE _0x122
                 ; 0000 0228             {
                 ; 0000 0229                //arrStatuTB[Device_Den_Khu3] = 1;
                 ; 0000 022A                Dens.thietbi.TB2 = 0;
0018ac 91e0 0529 	LDS  R30,_Dens
0018ae 7feb      	ANDI R30,0xFB
0018af 940e 1fd9 	CALL SUBOPT_0x53
                 ; 0000 022B                printf( "{\"type\":%d,\"id\":%d,\"status\":%d}\r\n" , statusTB, Device_Den_Khu3 , OFF );
                +
0018b1 e0e6     +LDI R30 , LOW ( 0x6 )
0018b2 e0f0     +LDI R31 , HIGH ( 0x6 )
0018b3 e060     +LDI R22 , BYTE3 ( 0x6 )
0018b4 e070     +LDI R23 , BYTE4 ( 0x6 )
                 	__GETD1N 0x6
                 _0x16C:
0018b5 940e 216b 	CALL __PUTPARD1
0018b7 940e 1ed9 	CALL SUBOPT_0x28
                 ; 0000 022C             }
                 ; 0000 022D             Den_Activation;
                 _0x122:
0018b9 940e 1e73 	CALL SUBOPT_0x16
                 ; 0000 022E             arrFlagHenGio[id] = 0;
0018bb 940e 1fed 	CALL SUBOPT_0x57
                 ; 0000 022F     }
                 ; 0000 0230 }
                 _0x11B:
0018bd c0c9      	RJMP _0x20A0005
                 ; .FEND
                 ;void checkHengioQuat(unsigned char tb, unsigned char gioOn, unsigned char phutOn, unsigned char gioOff, unsigned char ph ...
                 ; 0000 0232 {
                 _checkHengioQuat:
                 ; .FSTART _checkHengioQuat
                 ; 0000 0233     if(h == gioOn && m == phutOn && flagStatus == 0)
0018be 940e 1fce 	CALL SUBOPT_0x51
                 ;	tb -> Y+6
                 ;	gioOn -> Y+5
                 ;	phutOn -> Y+4
                 ;	gioOff -> Y+3
                 ;	phutOff -> Y+2
                 ;	flagStatus -> Y+1
                 ;	id -> Y+0
0018c0 f431      	BRNE _0x124
0018c1 940e 1fd4 	CALL SUBOPT_0x52
0018c3 f419      	BRNE _0x124
0018c4 81a9      	LDD  R26,Y+1
0018c5 30a0      	CPI  R26,LOW(0x0)
0018c6 f009      	BREQ _0x125
                 _0x124:
0018c7 c028      	RJMP _0x123
                 _0x125:
                 ; 0000 0234     {
                 ; 0000 0235             if(tb == 0)
0018c8 81ee      	LDD  R30,Y+6
0018c9 30e0      	CPI  R30,0
0018ca f441      	BRNE _0x126
                 ; 0000 0236             {
                 ; 0000 0237                //arrStatuTB[Device_Quat_Khu1] = 1;
                 ; 0000 0238                Quats.thietbi.TB0 =1;
0018cb 91e0 052a 	LDS  R30,_Quats
0018cd 60e1      	ORI  R30,1
0018ce 940e 1ff0 	CALL SUBOPT_0x58
                 ; 0000 0239                printf( "{\"type\":%d,\"id\":%d,\"status\":%d}\r\n" , statusTB, Device_Quat_Khu1 , ON );
0018d0 940e 1eb1 	CALL SUBOPT_0x20
0018d2 c015      	RJMP _0x16D
                 ; 0000 023A             }
                 ; 0000 023B             else if(tb == 1)
                 _0x126:
0018d3 81ae      	LDD  R26,Y+6
0018d4 30a1      	CPI  R26,LOW(0x1)
0018d5 f441      	BRNE _0x128
                 ; 0000 023C             {
                 ; 0000 023D                //arrStatuTB[Device_Quat_Khu2] = 1;
                 ; 0000 023E                 Quats.thietbi.TB1 =1;
0018d6 91e0 052a 	LDS  R30,_Quats
0018d8 60e2      	ORI  R30,2
0018d9 940e 1ff0 	CALL SUBOPT_0x58
                 ; 0000 023F                 printf( "{\"type\":%d,\"id\":%d,\"status\":%d}\r\n" , statusTB, Device_Quat_Khu2 , ON );
0018db 940e 1eb9 	CALL SUBOPT_0x22
0018dd c00a      	RJMP _0x16D
                 ; 0000 0240             }
                 ; 0000 0241             else if(tb == 2)
                 _0x128:
0018de 81ae      	LDD  R26,Y+6
0018df 30a2      	CPI  R26,LOW(0x2)
0018e0 f459      	BRNE _0x12A
                 ; 0000 0242             {
                 ; 0000 0243                //arrStatuTB[Device_Quat_Khu3] = 1;
                 ; 0000 0244                 Quats.thietbi.TB2 =1;
0018e1 91e0 052a 	LDS  R30,_Quats
0018e3 60e4      	ORI  R30,4
0018e4 940e 1ff0 	CALL SUBOPT_0x58
                 ; 0000 0245                 printf( "{\"type\":%d,\"id\":%d,\"status\":%d}\r\n" , statusTB, Device_Quat_Khu3 , ON );
0018e6 940e 1ebe 	CALL SUBOPT_0x23
                 _0x16D:
0018e8 940e 216b 	CALL __PUTPARD1
0018ea 940e 1ea5 	CALL SUBOPT_0x1E
                 ; 0000 0246             }
                 ; 0000 0247             Quat_Activation;
                 _0x12A:
0018ec 940e 1e78 	CALL SUBOPT_0x17
                 ; 0000 0248             arrFlagHenGio[id] = 1;
0018ee 940e 1fdc 	CALL SUBOPT_0x54
                 ; 0000 0249     }
                 ; 0000 024A     if(h == gioOff && m == phutOff && flagStatus == 1)
                 _0x123:
0018f0 940e 1fe3 	CALL SUBOPT_0x55
0018f2 f431      	BRNE _0x12C
0018f3 940e 1fe8 	CALL SUBOPT_0x56
0018f5 f419      	BRNE _0x12C
0018f6 81a9      	LDD  R26,Y+1
0018f7 30a1      	CPI  R26,LOW(0x1)
0018f8 f009      	BREQ _0x12D
                 _0x12C:
0018f9 c028      	RJMP _0x12B
                 _0x12D:
                 ; 0000 024B     {
                 ; 0000 024C             if(tb == 0)
0018fa 81ee      	LDD  R30,Y+6
0018fb 30e0      	CPI  R30,0
0018fc f441      	BRNE _0x12E
                 ; 0000 024D             {
                 ; 0000 024E                //arrStatuTB[Device_Quat_Khu1] = 0;
                 ; 0000 024F                Quats.thietbi.TB0 =0;
0018fd 91e0 052a 	LDS  R30,_Quats
0018ff 7fee      	ANDI R30,0xFE
001900 940e 1ff0 	CALL SUBOPT_0x58
                 ; 0000 0250                printf( "{\"type\":%d,\"id\":%d,\"status\":%d}\r\n" , statusTB, Device_Quat_Khu1 , OFF );
001902 940e 1eb1 	CALL SUBOPT_0x20
001904 c015      	RJMP _0x16E
                 ; 0000 0251             }
                 ; 0000 0252             else if(tb == 1)
                 _0x12E:
001905 81ae      	LDD  R26,Y+6
001906 30a1      	CPI  R26,LOW(0x1)
001907 f441      	BRNE _0x130
                 ; 0000 0253             {
                 ; 0000 0254                //arrStatuTB[Device_Quat_Khu2] = 0;
                 ; 0000 0255                Quats.thietbi.TB1 =0;
001908 91e0 052a 	LDS  R30,_Quats
00190a 7fed      	ANDI R30,0xFD
00190b 940e 1ff0 	CALL SUBOPT_0x58
                 ; 0000 0256                printf( "{\"type\":%d,\"id\":%d,\"status\":%d}\r\n" , statusTB, Device_Quat_Khu2 , OFF );
00190d 940e 1eb9 	CALL SUBOPT_0x22
00190f c00a      	RJMP _0x16E
                 ; 0000 0257             }
                 ; 0000 0258             else if(tb == 2)
                 _0x130:
001910 81ae      	LDD  R26,Y+6
001911 30a2      	CPI  R26,LOW(0x2)
001912 f459      	BRNE _0x132
                 ; 0000 0259             {
                 ; 0000 025A                //arrStatuTB[Device_Quat_Khu3] = 0;
                 ; 0000 025B                Quats.thietbi.TB2 =0;
001913 91e0 052a 	LDS  R30,_Quats
001915 7feb      	ANDI R30,0xFB
001916 940e 1ff0 	CALL SUBOPT_0x58
                 ; 0000 025C                printf( "{\"type\":%d,\"id\":%d,\"status\":%d}\r\n" , statusTB, Device_Quat_Khu3 , OFF );
001918 940e 1ebe 	CALL SUBOPT_0x23
                 _0x16E:
00191a 940e 216b 	CALL __PUTPARD1
00191c 940e 1ed9 	CALL SUBOPT_0x28
                 ; 0000 025D             }
                 ; 0000 025E             Quat_Activation;
                 _0x132:
00191e 940e 1e78 	CALL SUBOPT_0x17
                 ; 0000 025F             arrFlagHenGio[id] = 0;
001920 940e 1fed 	CALL SUBOPT_0x57
                 ; 0000 0260     }
                 ; 0000 0261 
                 ; 0000 0262 }
                 _0x12B:
001922 c064      	RJMP _0x20A0005
                 ; .FEND
                 ;void checkHengioBom(unsigned char tb, unsigned char gioOn, unsigned char phutOn, unsigned char gioOff, unsigned char phu ...
                 ; 0000 0264 {
                 _checkHengioBom:
                 ; .FSTART _checkHengioBom
                 ; 0000 0265     if(h == gioOn && m == phutOn && flagStatus == 0)
001923 940e 1fce 	CALL SUBOPT_0x51
                 ;	tb -> Y+6
                 ;	gioOn -> Y+5
                 ;	phutOn -> Y+4
                 ;	gioOff -> Y+3
                 ;	phutOff -> Y+2
                 ;	flagStatus -> Y+1
                 ;	id -> Y+0
001925 f431      	BRNE _0x134
001926 940e 1fd4 	CALL SUBOPT_0x52
001928 f419      	BRNE _0x134
001929 81a9      	LDD  R26,Y+1
00192a 30a0      	CPI  R26,LOW(0x0)
00192b f009      	BREQ _0x135
                 _0x134:
00192c c028      	RJMP _0x133
                 _0x135:
                 ; 0000 0266     {
                 ; 0000 0267             if(tb == 0)
00192d 81ee      	LDD  R30,Y+6
00192e 30e0      	CPI  R30,0
00192f f441      	BRNE _0x136
                 ; 0000 0268             {
                 ; 0000 0269                //arrStatuTB[Device_Bom_Khu1] = 1;
                 ; 0000 026A                Boms.thietbi.TB0 = 1 ;
001930 91e0 052b 	LDS  R30,_Boms
001932 60e1      	ORI  R30,1
001933 940e 1ff3 	CALL SUBOPT_0x59
                 ; 0000 026B                printf( "{\"type\":%d,\"id\":%d,\"status\":%d}\r\n" , statusTB, Device_Bom_Khu1 , ON );
001935 940e 1ec3 	CALL SUBOPT_0x24
001937 c015      	RJMP _0x16F
                 ; 0000 026C             }
                 ; 0000 026D             else if(tb == 1)
                 _0x136:
001938 81ae      	LDD  R26,Y+6
001939 30a1      	CPI  R26,LOW(0x1)
00193a f441      	BRNE _0x138
                 ; 0000 026E             {
                 ; 0000 026F                //arrStatuTB[Device_Bom_Khu2] = 1;
                 ; 0000 0270                Boms.thietbi.TB1 = 1;
00193b 91e0 052b 	LDS  R30,_Boms
00193d 60e2      	ORI  R30,2
00193e 940e 1ff3 	CALL SUBOPT_0x59
                 ; 0000 0271                printf( "{\"type\":%d,\"id\":%d,\"status\":%d}\r\n" , statusTB, Device_Bom_Khu2 , ON );
001940 940e 1ec8 	CALL SUBOPT_0x25
001942 c00a      	RJMP _0x16F
                 ; 0000 0272             }
                 ; 0000 0273             else if(tb == 2)
                 _0x138:
001943 81ae      	LDD  R26,Y+6
001944 30a2      	CPI  R26,LOW(0x2)
001945 f459      	BRNE _0x13A
                 ; 0000 0274             {
                 ; 0000 0275                //arrStatuTB[Device_Bom_Khu3] = 1;
                 ; 0000 0276                Boms.thietbi.TB2 = 1;
001946 91e0 052b 	LDS  R30,_Boms
001948 60e4      	ORI  R30,4
001949 940e 1ff3 	CALL SUBOPT_0x59
                 ; 0000 0277                printf( "{\"type\":%d,\"id\":%d,\"status\":%d}\r\n" , statusTB, Device_Bom_Khu3 , ON );
00194b 940e 1ecd 	CALL SUBOPT_0x26
                 _0x16F:
00194d 940e 216b 	CALL __PUTPARD1
00194f 940e 1ea5 	CALL SUBOPT_0x1E
                 ; 0000 0278             }
                 ; 0000 0279             Bom_Activation;
                 _0x13A:
001951 940e 1e7d 	CALL SUBOPT_0x18
                 ; 0000 027A             arrFlagHenGio[id] = 1;
001953 940e 1fdc 	CALL SUBOPT_0x54
                 ; 0000 027B     }
                 ; 0000 027C     if(h == gioOff && m == phutOff && flagStatus == 1)
                 _0x133:
001955 940e 1fe3 	CALL SUBOPT_0x55
001957 f431      	BRNE _0x13C
001958 940e 1fe8 	CALL SUBOPT_0x56
00195a f419      	BRNE _0x13C
00195b 81a9      	LDD  R26,Y+1
00195c 30a1      	CPI  R26,LOW(0x1)
00195d f009      	BREQ _0x13D
                 _0x13C:
00195e c028      	RJMP _0x13B
                 _0x13D:
                 ; 0000 027D     {
                 ; 0000 027E             if(tb == 0)
00195f 81ee      	LDD  R30,Y+6
001960 30e0      	CPI  R30,0
001961 f441      	BRNE _0x13E
                 ; 0000 027F             {
                 ; 0000 0280                //arrStatuTB[Device_Bom_Khu1] = 0;
                 ; 0000 0281                 Boms.thietbi.TB0 = 0;
001962 91e0 052b 	LDS  R30,_Boms
001964 7fee      	ANDI R30,0xFE
001965 940e 1ff3 	CALL SUBOPT_0x59
                 ; 0000 0282                 printf( "{\"type\":%d,\"id\":%d,\"status\":%d}\r\n" , statusTB, Device_Bom_Khu1 , OFF );
001967 940e 1ec3 	CALL SUBOPT_0x24
001969 c015      	RJMP _0x170
                 ; 0000 0283             }
                 ; 0000 0284             else if(tb == 1)
                 _0x13E:
00196a 81ae      	LDD  R26,Y+6
00196b 30a1      	CPI  R26,LOW(0x1)
00196c f441      	BRNE _0x140
                 ; 0000 0285             {
                 ; 0000 0286                //arrStatuTB[Device_Bom_Khu2] = 0;
                 ; 0000 0287                Boms.thietbi.TB1 = 0;
00196d 91e0 052b 	LDS  R30,_Boms
00196f 7fed      	ANDI R30,0xFD
001970 940e 1ff3 	CALL SUBOPT_0x59
                 ; 0000 0288                printf( "{\"type\":%d,\"id\":%d,\"status\":%d}\r\n" , statusTB, Device_Bom_Khu2 , OFF );
001972 940e 1ec8 	CALL SUBOPT_0x25
001974 c00a      	RJMP _0x170
                 ; 0000 0289             }
                 ; 0000 028A             else if(tb == 2)
                 _0x140:
001975 81ae      	LDD  R26,Y+6
001976 30a2      	CPI  R26,LOW(0x2)
001977 f459      	BRNE _0x142
                 ; 0000 028B             {
                 ; 0000 028C                //arrStatuTB[Device_Bom_Khu3] = 0;
                 ; 0000 028D                Boms.thietbi.TB2 = 0;
001978 91e0 052b 	LDS  R30,_Boms
00197a 7feb      	ANDI R30,0xFB
00197b 940e 1ff3 	CALL SUBOPT_0x59
                 ; 0000 028E                printf( "{\"type\":%d,\"id\":%d,\"status\":%d}\r\n" , statusTB, Device_Bom_Khu3 , OFF );
00197d 940e 1ecd 	CALL SUBOPT_0x26
                 _0x170:
00197f 940e 216b 	CALL __PUTPARD1
001981 940e 1ed9 	CALL SUBOPT_0x28
                 ; 0000 028F             }
                 ; 0000 0290             Bom_Activation;
                 _0x142:
001983 940e 1e7d 	CALL SUBOPT_0x18
                 ; 0000 0291             arrFlagHenGio[id] = 0;
001985 940e 1fed 	CALL SUBOPT_0x57
                 ; 0000 0292     }
                 ; 0000 0293 }
                 _0x13B:
                 _0x20A0005:
001987 9627      	ADIW R28,7
001988 9508      	RET
                 ; .FEND
                 ;
                 ;void HenGio()
                 ; 0000 0296 {
                 _HenGio:
                 ; .FSTART _HenGio
                 ; 0000 0297     unsigned char i;
                 ; 0000 0298 
                 ; 0000 0299     for(i=0;i<=Hengio_BomKhu3Lan3;i++)
001989 931a      	ST   -Y,R17
                 ;	i -> R17
00198a e010      	LDI  R17,LOW(0)
                 _0x144:
00198b 311b      	CPI  R17,27
00198c f008      	BRLO PC+2
00198d c12d      	RJMP _0x145
                 ; 0000 029A     {
                 ; 0000 029B             switch(i)
00198e 2fe1      	MOV  R30,R17
00198f e0f0      	LDI  R31,0
                 ; 0000 029C             {
                 ; 0000 029D                 //hen gio den
                 ; 0000 029E                 case Hengio_DenKhu1Lan1:
001990 9730      	SBIW R30,0
001991 f449      	BRNE _0x149
                 ; 0000 029F                     checkHengioDen(0 , arrGioOn[i], arrPhutOn[i] , arrGioOff[i], arrPhutOff[i],arrFlagHenGio[i],i);
001992 940e 1ff6 	CALL SUBOPT_0x5A
001994 940e 1ff9 	CALL SUBOPT_0x5B
001996 940e 1ffd 	CALL SUBOPT_0x5C
001998 940e 2006 	CALL SUBOPT_0x5D
                 ; 0000 02A0                     break;
00199a c11e      	RJMP _0x148
                 ; 0000 02A1                 case Hengio_DenKhu1Lan2:
                 _0x149:
00199b 30e1      	CPI  R30,LOW(0x1)
00199c e0a0      	LDI  R26,HIGH(0x1)
00199d 07fa      	CPC  R31,R26
00199e f449      	BRNE _0x14A
                 ; 0000 02A2                     checkHengioDen(0 , arrGioOn[i], arrPhutOn[i] , arrGioOff[i], arrPhutOff[i],arrFlagHenGio[i],i);
00199f 940e 1ff6 	CALL SUBOPT_0x5A
0019a1 940e 1ff9 	CALL SUBOPT_0x5B
0019a3 940e 1ffd 	CALL SUBOPT_0x5C
0019a5 940e 2006 	CALL SUBOPT_0x5D
                 ; 0000 02A3                     break;
0019a7 c111      	RJMP _0x148
                 ; 0000 02A4                 case Hengio_DenKhu1Lan3:
                 _0x14A:
0019a8 30e2      	CPI  R30,LOW(0x2)
0019a9 e0a0      	LDI  R26,HIGH(0x2)
0019aa 07fa      	CPC  R31,R26
0019ab f449      	BRNE _0x14B
                 ; 0000 02A5                     checkHengioDen(0 , arrGioOn[i], arrPhutOn[i] , arrGioOff[i], arrPhutOff[i],arrFlagHenGio[i],i);
0019ac 940e 1ff6 	CALL SUBOPT_0x5A
0019ae 940e 1ff9 	CALL SUBOPT_0x5B
0019b0 940e 1ffd 	CALL SUBOPT_0x5C
0019b2 940e 2006 	CALL SUBOPT_0x5D
                 ; 0000 02A6                     break;
0019b4 c104      	RJMP _0x148
                 ; 0000 02A7                 case Hengio_DenKhu2Lan1:
                 _0x14B:
0019b5 30e3      	CPI  R30,LOW(0x3)
0019b6 e0a0      	LDI  R26,HIGH(0x3)
0019b7 07fa      	CPC  R31,R26
0019b8 f449      	BRNE _0x14C
                 ; 0000 02A8                     checkHengioDen(1 , arrGioOn[i], arrPhutOn[i] , arrGioOff[i], arrPhutOff[i],arrFlagHenGio[i],i);
0019b9 940e 2010 	CALL SUBOPT_0x5E
0019bb 940e 1ff9 	CALL SUBOPT_0x5B
0019bd 940e 1ffd 	CALL SUBOPT_0x5C
0019bf 940e 2006 	CALL SUBOPT_0x5D
                 ; 0000 02A9                     break;
0019c1 c0f7      	RJMP _0x148
                 ; 0000 02AA                 case Hengio_DenKhu2Lan2:
                 _0x14C:
0019c2 30e4      	CPI  R30,LOW(0x4)
0019c3 e0a0      	LDI  R26,HIGH(0x4)
0019c4 07fa      	CPC  R31,R26
0019c5 f449      	BRNE _0x14D
                 ; 0000 02AB                     checkHengioDen(1 , arrGioOn[i], arrPhutOn[i] , arrGioOff[i], arrPhutOff[i],arrFlagHenGio[i],i);
0019c6 940e 2010 	CALL SUBOPT_0x5E
0019c8 940e 1ff9 	CALL SUBOPT_0x5B
0019ca 940e 1ffd 	CALL SUBOPT_0x5C
0019cc 940e 2006 	CALL SUBOPT_0x5D
                 ; 0000 02AC                     break;
0019ce c0ea      	RJMP _0x148
                 ; 0000 02AD                 case Hengio_DenKhu2Lan3:
                 _0x14D:
0019cf 30e5      	CPI  R30,LOW(0x5)
0019d0 e0a0      	LDI  R26,HIGH(0x5)
0019d1 07fa      	CPC  R31,R26
0019d2 f449      	BRNE _0x14E
                 ; 0000 02AE                     checkHengioDen(1 , arrGioOn[i], arrPhutOn[i] , arrGioOff[i], arrPhutOff[i],arrFlagHenGio[i],i);
0019d3 940e 2010 	CALL SUBOPT_0x5E
0019d5 940e 1ff9 	CALL SUBOPT_0x5B
0019d7 940e 1ffd 	CALL SUBOPT_0x5C
0019d9 940e 2006 	CALL SUBOPT_0x5D
                 ; 0000 02AF                     break;
0019db c0dd      	RJMP _0x148
                 ; 0000 02B0                 case Hengio_DenKhu3Lan1:
                 _0x14E:
0019dc 30e6      	CPI  R30,LOW(0x6)
0019dd e0a0      	LDI  R26,HIGH(0x6)
0019de 07fa      	CPC  R31,R26
0019df f449      	BRNE _0x14F
                 ; 0000 02B1                     checkHengioDen(2 , arrGioOn[i], arrPhutOn[i] , arrGioOff[i], arrPhutOff[i],arrFlagHenGio[i],i);
0019e0 940e 2013 	CALL SUBOPT_0x5F
0019e2 940e 1ff9 	CALL SUBOPT_0x5B
0019e4 940e 1ffd 	CALL SUBOPT_0x5C
0019e6 940e 2006 	CALL SUBOPT_0x5D
                 ; 0000 02B2                     break;
0019e8 c0d0      	RJMP _0x148
                 ; 0000 02B3                 case Hengio_DenKhu3Lan2:
                 _0x14F:
0019e9 30e7      	CPI  R30,LOW(0x7)
0019ea e0a0      	LDI  R26,HIGH(0x7)
0019eb 07fa      	CPC  R31,R26
0019ec f449      	BRNE _0x150
                 ; 0000 02B4                     checkHengioDen(2 , arrGioOn[i], arrPhutOn[i] , arrGioOff[i], arrPhutOff[i],arrFlagHenGio[i],i);
0019ed 940e 2013 	CALL SUBOPT_0x5F
0019ef 940e 1ff9 	CALL SUBOPT_0x5B
0019f1 940e 1ffd 	CALL SUBOPT_0x5C
0019f3 940e 2006 	CALL SUBOPT_0x5D
                 ; 0000 02B5                     break;
0019f5 c0c3      	RJMP _0x148
                 ; 0000 02B6                 case Hengio_DenKhu3Lan3:
                 _0x150:
0019f6 30e8      	CPI  R30,LOW(0x8)
0019f7 e0a0      	LDI  R26,HIGH(0x8)
0019f8 07fa      	CPC  R31,R26
0019f9 f449      	BRNE _0x151
                 ; 0000 02B7                     checkHengioDen(2 , arrGioOn[i], arrPhutOn[i] , arrGioOff[i], arrPhutOff[i],arrFlagHenGio[i],i);
0019fa 940e 2013 	CALL SUBOPT_0x5F
0019fc 940e 1ff9 	CALL SUBOPT_0x5B
0019fe 940e 1ffd 	CALL SUBOPT_0x5C
001a00 940e 2006 	CALL SUBOPT_0x5D
                 ; 0000 02B8                     break;
001a02 c0b6      	RJMP _0x148
                 ; 0000 02B9                 //hen gio quat
                 ; 0000 02BA                 case Hengio_QuatKhu1Lan1:
                 _0x151:
001a03 30e9      	CPI  R30,LOW(0x9)
001a04 e0a0      	LDI  R26,HIGH(0x9)
001a05 07fa      	CPC  R31,R26
001a06 f449      	BRNE _0x152
                 ; 0000 02BB                     checkHengioQuat(0 , arrGioOn[i], arrPhutOn[i] , arrGioOff[i], arrPhutOff[i],arrFlagHenGio[i],i);
001a07 940e 1ff6 	CALL SUBOPT_0x5A
001a09 940e 1ff9 	CALL SUBOPT_0x5B
001a0b 940e 1ffd 	CALL SUBOPT_0x5C
001a0d 940e 2016 	CALL SUBOPT_0x60
                 ; 0000 02BC                     break;
001a0f c0a9      	RJMP _0x148
                 ; 0000 02BD                 case Hengio_QuatKhu1Lan2:
                 _0x152:
001a10 30ea      	CPI  R30,LOW(0xA)
001a11 e0a0      	LDI  R26,HIGH(0xA)
001a12 07fa      	CPC  R31,R26
001a13 f449      	BRNE _0x153
                 ; 0000 02BE                     checkHengioQuat(0 , arrGioOn[i], arrPhutOn[i] , arrGioOff[i], arrPhutOff[i],arrFlagHenGio[i],i);
001a14 940e 1ff6 	CALL SUBOPT_0x5A
001a16 940e 1ff9 	CALL SUBOPT_0x5B
001a18 940e 1ffd 	CALL SUBOPT_0x5C
001a1a 940e 2016 	CALL SUBOPT_0x60
                 ; 0000 02BF                     break;
001a1c c09c      	RJMP _0x148
                 ; 0000 02C0                 case Hengio_QuatKhu1Lan3:
                 _0x153:
001a1d 30eb      	CPI  R30,LOW(0xB)
001a1e e0a0      	LDI  R26,HIGH(0xB)
001a1f 07fa      	CPC  R31,R26
001a20 f449      	BRNE _0x154
                 ; 0000 02C1                     checkHengioQuat(0 , arrGioOn[i], arrPhutOn[i] , arrGioOff[i], arrPhutOff[i],arrFlagHenGio[i],i);
001a21 940e 1ff6 	CALL SUBOPT_0x5A
001a23 940e 1ff9 	CALL SUBOPT_0x5B
001a25 940e 1ffd 	CALL SUBOPT_0x5C
001a27 940e 2016 	CALL SUBOPT_0x60
                 ; 0000 02C2                     break;
001a29 c08f      	RJMP _0x148
                 ; 0000 02C3                 case Hengio_QuatKhu2Lan1:
                 _0x154:
001a2a 30ec      	CPI  R30,LOW(0xC)
001a2b e0a0      	LDI  R26,HIGH(0xC)
001a2c 07fa      	CPC  R31,R26
001a2d f449      	BRNE _0x155
                 ; 0000 02C4                     checkHengioQuat(1 , arrGioOn[i], arrPhutOn[i] , arrGioOff[i], arrPhutOff[i],arrFlagHenGio[i],i);
001a2e 940e 2010 	CALL SUBOPT_0x5E
001a30 940e 1ff9 	CALL SUBOPT_0x5B
001a32 940e 1ffd 	CALL SUBOPT_0x5C
001a34 940e 2016 	CALL SUBOPT_0x60
                 ; 0000 02C5                     break;
001a36 c082      	RJMP _0x148
                 ; 0000 02C6                 case Hengio_QuatKhu2Lan2:
                 _0x155:
001a37 30ed      	CPI  R30,LOW(0xD)
001a38 e0a0      	LDI  R26,HIGH(0xD)
001a39 07fa      	CPC  R31,R26
001a3a f449      	BRNE _0x156
                 ; 0000 02C7                     checkHengioQuat(1 , arrGioOn[i], arrPhutOn[i] , arrGioOff[i], arrPhutOff[i],arrFlagHenGio[i],i);
001a3b 940e 2010 	CALL SUBOPT_0x5E
001a3d 940e 1ff9 	CALL SUBOPT_0x5B
001a3f 940e 1ffd 	CALL SUBOPT_0x5C
001a41 940e 2016 	CALL SUBOPT_0x60
                 ; 0000 02C8                     break;
001a43 c075      	RJMP _0x148
                 ; 0000 02C9                 case Hengio_QuatKhu2Lan3:
                 _0x156:
001a44 30ee      	CPI  R30,LOW(0xE)
001a45 e0a0      	LDI  R26,HIGH(0xE)
001a46 07fa      	CPC  R31,R26
001a47 f449      	BRNE _0x157
                 ; 0000 02CA                     checkHengioQuat(1 , arrGioOn[i], arrPhutOn[i] , arrGioOff[i], arrPhutOff[i],arrFlagHenGio[i],i);
001a48 940e 2010 	CALL SUBOPT_0x5E
001a4a 940e 1ff9 	CALL SUBOPT_0x5B
001a4c 940e 1ffd 	CALL SUBOPT_0x5C
001a4e 940e 2016 	CALL SUBOPT_0x60
                 ; 0000 02CB                     break;
001a50 c068      	RJMP _0x148
                 ; 0000 02CC                 case Hengio_QuatKhu3Lan1:
                 _0x157:
001a51 30ef      	CPI  R30,LOW(0xF)
001a52 e0a0      	LDI  R26,HIGH(0xF)
001a53 07fa      	CPC  R31,R26
001a54 f449      	BRNE _0x158
                 ; 0000 02CD                     checkHengioQuat(2 , arrGioOn[i], arrPhutOn[i] , arrGioOff[i], arrPhutOff[i],arrFlagHenGio[i],i);
001a55 940e 2013 	CALL SUBOPT_0x5F
001a57 940e 1ff9 	CALL SUBOPT_0x5B
001a59 940e 1ffd 	CALL SUBOPT_0x5C
001a5b 940e 2016 	CALL SUBOPT_0x60
                 ; 0000 02CE                     break;
001a5d c05b      	RJMP _0x148
                 ; 0000 02CF                 case Hengio_QuatKhu3Lan2:
                 _0x158:
001a5e 31e0      	CPI  R30,LOW(0x10)
001a5f e0a0      	LDI  R26,HIGH(0x10)
001a60 07fa      	CPC  R31,R26
001a61 f449      	BRNE _0x159
                 ; 0000 02D0                     checkHengioQuat(2 , arrGioOn[i], arrPhutOn[i] , arrGioOff[i], arrPhutOff[i],arrFlagHenGio[i],i);
001a62 940e 2013 	CALL SUBOPT_0x5F
001a64 940e 1ff9 	CALL SUBOPT_0x5B
001a66 940e 1ffd 	CALL SUBOPT_0x5C
001a68 940e 2016 	CALL SUBOPT_0x60
                 ; 0000 02D1                     break;
001a6a c04e      	RJMP _0x148
                 ; 0000 02D2                 case Hengio_QuatKhu3Lan3:
                 _0x159:
001a6b 31e1      	CPI  R30,LOW(0x11)
001a6c e0a0      	LDI  R26,HIGH(0x11)
001a6d 07fa      	CPC  R31,R26
001a6e f449      	BRNE _0x15A
                 ; 0000 02D3                     checkHengioQuat(2 , arrGioOn[i], arrPhutOn[i] , arrGioOff[i], arrPhutOff[i],arrFlagHenGio[i],i);
001a6f 940e 2013 	CALL SUBOPT_0x5F
001a71 940e 1ff9 	CALL SUBOPT_0x5B
001a73 940e 1ffd 	CALL SUBOPT_0x5C
001a75 940e 2016 	CALL SUBOPT_0x60
                 ; 0000 02D4                     break;
001a77 c041      	RJMP _0x148
                 ; 0000 02D5                 //hen gio bom
                 ; 0000 02D6                 case Hengio_BomKhu1Lan1:
                 _0x15A:
001a78 31e2      	CPI  R30,LOW(0x12)
001a79 e0a0      	LDI  R26,HIGH(0x12)
001a7a 07fa      	CPC  R31,R26
001a7b f411      	BRNE _0x15B
                 ; 0000 02D7                     checkHengioBom(0 , arrGioOn[i], arrPhutOn[i] , arrGioOff[i], arrPhutOff[i],arrFlagHenGio[i],i);
001a7c e0e0      	LDI  R30,LOW(0)
001a7d c02b      	RJMP _0x171
                 ; 0000 02D8                     break;
                 ; 0000 02D9                 case Hengio_BomKhu1Lan2:
                 _0x15B:
001a7e 31e3      	CPI  R30,LOW(0x13)
001a7f e0a0      	LDI  R26,HIGH(0x13)
001a80 07fa      	CPC  R31,R26
001a81 f411      	BRNE _0x15C
                 ; 0000 02DA                     checkHengioBom(0 , arrGioOn[i], arrPhutOn[i] , arrGioOff[i], arrPhutOff[i],arrFlagHenGio[i],i);
001a82 e0e0      	LDI  R30,LOW(0)
001a83 c025      	RJMP _0x171
                 ; 0000 02DB                     break;
                 ; 0000 02DC                 case Hengio_BomKhu1Lan3:
                 _0x15C:
001a84 31e4      	CPI  R30,LOW(0x14)
001a85 e0a0      	LDI  R26,HIGH(0x14)
001a86 07fa      	CPC  R31,R26
001a87 f411      	BRNE _0x15D
                 ; 0000 02DD                     checkHengioBom(0 , arrGioOn[i], arrPhutOn[i] , arrGioOff[i], arrPhutOff[i],arrFlagHenGio[i],i);
001a88 e0e0      	LDI  R30,LOW(0)
001a89 c01f      	RJMP _0x171
                 ; 0000 02DE                     break;
                 ; 0000 02DF                 case Hengio_BomKhu2Lan1:
                 _0x15D:
001a8a 31e5      	CPI  R30,LOW(0x15)
001a8b e0a0      	LDI  R26,HIGH(0x15)
001a8c 07fa      	CPC  R31,R26
001a8d f411      	BRNE _0x15E
                 ; 0000 02E0                     checkHengioBom(1 , arrGioOn[i], arrPhutOn[i] , arrGioOff[i], arrPhutOff[i],arrFlagHenGio[i],i);
001a8e e0e1      	LDI  R30,LOW(1)
001a8f c019      	RJMP _0x171
                 ; 0000 02E1                     break;
                 ; 0000 02E2                 case Hengio_BomKhu2Lan2:
                 _0x15E:
001a90 31e6      	CPI  R30,LOW(0x16)
001a91 e0a0      	LDI  R26,HIGH(0x16)
001a92 07fa      	CPC  R31,R26
001a93 f411      	BRNE _0x15F
                 ; 0000 02E3                     checkHengioBom(1 , arrGioOn[i], arrPhutOn[i] , arrGioOff[i], arrPhutOff[i],arrFlagHenGio[i],i);
001a94 e0e1      	LDI  R30,LOW(1)
001a95 c013      	RJMP _0x171
                 ; 0000 02E4                     break;
                 ; 0000 02E5                 case Hengio_BomKhu2Lan3:
                 _0x15F:
001a96 31e7      	CPI  R30,LOW(0x17)
001a97 e0a0      	LDI  R26,HIGH(0x17)
001a98 07fa      	CPC  R31,R26
001a99 f411      	BRNE _0x160
                 ; 0000 02E6                     checkHengioBom(1 , arrGioOn[i], arrPhutOn[i] , arrGioOff[i], arrPhutOff[i],arrFlagHenGio[i],i);
001a9a e0e1      	LDI  R30,LOW(1)
001a9b c00d      	RJMP _0x171
                 ; 0000 02E7                     break;
                 ; 0000 02E8                 case Hengio_BomKhu3Lan1:
                 _0x160:
001a9c 31e8      	CPI  R30,LOW(0x18)
001a9d e0a0      	LDI  R26,HIGH(0x18)
001a9e 07fa      	CPC  R31,R26
001a9f f041      	BREQ _0x172
                 ; 0000 02E9                     checkHengioBom(2 , arrGioOn[i], arrPhutOn[i] , arrGioOff[i], arrPhutOff[i],arrFlagHenGio[i],i);
                 ; 0000 02EA                     break;
                 ; 0000 02EB                 case Hengio_BomKhu3Lan2:
001aa0 31e9      	CPI  R30,LOW(0x19)
001aa1 e0a0      	LDI  R26,HIGH(0x19)
001aa2 07fa      	CPC  R31,R26
001aa3 f021      	BREQ _0x172
                 ; 0000 02EC                     checkHengioBom(2 , arrGioOn[i], arrPhutOn[i] , arrGioOff[i], arrPhutOff[i],arrFlagHenGio[i],i);
                 ; 0000 02ED                     break;
                 ; 0000 02EE                 case Hengio_BomKhu3Lan3:
001aa4 31ea      	CPI  R30,LOW(0x1A)
001aa5 e0a0      	LDI  R26,HIGH(0x1A)
001aa6 07fa      	CPC  R31,R26
001aa7 f489      	BRNE _0x148
                 ; 0000 02EF                     checkHengioBom(2 , arrGioOn[i], arrPhutOn[i] , arrGioOff[i], arrPhutOff[i],arrFlagHenGio[i],i);
                 _0x172:
001aa8 e0e2      	LDI  R30,LOW(2)
                 _0x171:
001aa9 93ea      	ST   -Y,R30
001aaa 940e 1fbf 	CALL SUBOPT_0x4E
001aac 940e 1ff9 	CALL SUBOPT_0x5B
001aae 940e 1ffd 	CALL SUBOPT_0x5C
001ab0 93ea      	ST   -Y,R30
001ab1 2fe1      	MOV  R30,R17
001ab2 e0f0      	LDI  R31,0
001ab3 5def      	SUBI R30,LOW(-_arrFlagHenGio)
001ab4 4ff8      	SBCI R31,HIGH(-_arrFlagHenGio)
001ab5 81e0      	LD   R30,Z
001ab6 93ea      	ST   -Y,R30
001ab7 2fa1      	MOV  R26,R17
001ab8 de6a      	RCALL _checkHengioBom
                 ; 0000 02F0                     break;
                 ; 0000 02F1             }
                 _0x148:
                 ; 0000 02F2     }
001ab9 5f1f      	SUBI R17,-1
001aba ced0      	RJMP _0x144
                 _0x145:
                 ; 0000 02F3 }
                 _0x20A0004:
001abb 9119      	LD   R17,Y+
001abc 9508      	RET
                 ; .FEND
                 ;
                 ;void setup(){
                 ; 0000 02F5 void setup(){
                 _setup:
                 ; .FSTART _setup
                 ; 0000 02F6 
                 ; 0000 02F7 // Input/Output Ports initialization
                 ; 0000 02F8 // Port A initialization
                 ; 0000 02F9 // Function: Bit7=In Bit6=In Bit5=In Bit4=In Bit3=In Bit2=In Bit1=In Bit0=In
                 ; 0000 02FA DDRA=(0<<DDA7) | (0<<DDA6) | (0<<DDA5) | (0<<DDA4) | (0<<DDA3) | (0<<DDA2) | (0<<DDA1) | (0<<DDA0);
001abd e0e0      	LDI  R30,LOW(0)
001abe bbea      	OUT  0x1A,R30
                 ; 0000 02FB // State: Bit7=T Bit6=T Bit5=T Bit4=T Bit3=T Bit2=T Bit1=T Bit0=T
                 ; 0000 02FC PORTA=(0<<PORTA7) | (0<<PORTA6) | (0<<PORTA5) | (0<<PORTA4) | (0<<PORTA3) | (0<<PORTA2) | (0<<PORTA1) | (0<<PORTA0);
001abf bbeb      	OUT  0x1B,R30
                 ; 0000 02FD 
                 ; 0000 02FE // Port B initialization
                 ; 0000 02FF // Function: Bit7=In Bit6=In Bit5=In Bit4=In Bit3=In Bit2=In Bit1=In Bit0=In
                 ; 0000 0300 DDRB=(0<<DDB7) | (0<<DDB6) | (0<<DDB5) | (0<<DDB4) | (0<<DDB3) | (0<<DDB2) | (0<<DDB1) | (0<<DDB0);
001ac0 bbe7      	OUT  0x17,R30
                 ; 0000 0301 // State: Bit7=T Bit6=T Bit5=T Bit4=T Bit3=T Bit2=T Bit1=T Bit0=T
                 ; 0000 0302 PORTB=(0<<PORTB7) | (0<<PORTB6) | (0<<PORTB5) | (0<<PORTB4) | (0<<PORTB3) | (0<<PORTB2) | (0<<PORTB1) | (0<<PORTB0);
001ac1 bbe8      	OUT  0x18,R30
                 ; 0000 0303 
                 ; 0000 0304 // Port C initialization
                 ; 0000 0305 // Function: Bit7=In Bit6=In Bit5=In Bit4=In Bit3=In Bit2=In Bit1=In Bit0=In
                 ; 0000 0306 DDRC=(0<<DDC7) | (0<<DDC6) | (0<<DDC5) | (0<<DDC4) | (0<<DDC3) | (0<<DDC2) | (0<<DDC1) | (0<<DDC0);
001ac2 bbe4      	OUT  0x14,R30
                 ; 0000 0307 // State: Bit7=T Bit6=T Bit5=T Bit4=T Bit3=T Bit2=T Bit1=T Bit0=T
                 ; 0000 0308 PORTC=(0<<PORTC7) | (0<<PORTC6) | (0<<PORTC5) | (0<<PORTC4) | (0<<PORTC3) | (0<<PORTC2) | (0<<PORTC1) | (0<<PORTC0);
001ac3 bbe5      	OUT  0x15,R30
                 ; 0000 0309 
                 ; 0000 030A // Port D initialization
                 ; 0000 030B // Function: Bit7=In Bit6=In Bit5=In Bit4=In Bit3=In Bit2=In Bit1=In Bit0=In
                 ; 0000 030C DDRD=(0<<DDD7) | (0<<DDD6) | (0<<DDD5) | (1<<DDD4) | (0<<DDD3) | (0<<DDD2) | (0<<DDD1) | (0<<DDD0);
001ac4 e1e0      	LDI  R30,LOW(16)
001ac5 bbe1      	OUT  0x11,R30
                 ; 0000 030D // State: Bit7=T Bit6=T Bit5=T Bit4=T Bit3=T Bit2=T Bit1=T Bit0=T
                 ; 0000 030E PORTD=(0<<PORTD7) | (0<<PORTD6) | (0<<PORTD5) | (1<<PORTD4) | (0<<PORTD3) | (0<<PORTD2) | (0<<PORTD1) | (0<<PORTD0);
001ac6 bbe2      	OUT  0x12,R30
                 ; 0000 030F 
                 ; 0000 0310 // Port E initialization
                 ; 0000 0311 // Function: Bit7=In Bit6=In Bit5=In Bit4=In Bit3=In Bit2=In Bit1=In Bit0=In
                 ; 0000 0312 DDRE=(0<<DDE7) | (0<<DDE6) | (0<<DDE5) | (0<<DDE4) | (0<<DDE3) | (0<<DDE2) | (0<<DDE1) | (0<<DDE0);
001ac7 e0e0      	LDI  R30,LOW(0)
001ac8 b9e2      	OUT  0x2,R30
                 ; 0000 0313 // State: Bit7=T Bit6=T Bit5=T Bit4=T Bit3=T Bit2=T Bit1=T Bit0=T
                 ; 0000 0314 PORTE=(0<<PORTE7) | (0<<PORTE6) | (0<<PORTE5) | (0<<PORTE4) | (0<<PORTE3) | (0<<PORTE2) | (0<<PORTE1) | (0<<PORTE0);
001ac9 b9e3      	OUT  0x3,R30
                 ; 0000 0315 
                 ; 0000 0316 // Port F initialization
                 ; 0000 0317 // Function: Bit7=In Bit6=In Bit5=In Bit4=In Bit3=In Bit2=In Bit1=In Bit0=In
                 ; 0000 0318 DDRF=(0<<DDF7) | (0<<DDF6) | (0<<DDF5) | (0<<DDF4) | (0<<DDF3) | (0<<DDF2) | (0<<DDF1) | (0<<DDF0);
001aca 93e0 0061 	STS  97,R30
                 ; 0000 0319 // State: Bit7=T Bit6=T Bit5=T Bit4=T Bit3=T Bit2=T Bit1=T Bit0=T
                 ; 0000 031A PORTF=(1<<PORTF7) | (1<<PORTF6) | (1<<PORTF5) | (1<<PORTF4) | (1<<PORTF3) | (1<<PORTF2) | (1<<PORTF1) | (1<<PORTF0);
001acc efef      	LDI  R30,LOW(255)
001acd 93e0 0062 	STS  98,R30
                 ; 0000 031B 
                 ; 0000 031C // Port G initialization
                 ; 0000 031D // Function: Bit4=In Bit3=In Bit2=In Bit1=In Bit0=In
                 ; 0000 031E DDRG=(0<<DDG4) | (1<<DDG3) | (0<<DDG2) | (0<<DDG1) | (0<<DDG0);
001acf e0e8      	LDI  R30,LOW(8)
001ad0 93e0 0064 	STS  100,R30
                 ; 0000 031F // State: Bit4=T Bit3=T Bit2=T Bit1=T Bit0=T
                 ; 0000 0320 PORTG=(0<<PORTG4) | (0<<PORTG3) | (0<<PORTG2) | (0<<PORTG1) | (0<<PORTG0);
001ad2 e0e0      	LDI  R30,LOW(0)
001ad3 93e0 0065 	STS  101,R30
                 ; 0000 0321 
                 ; 0000 0322 
                 ; 0000 0323 
                 ; 0000 0324 // Timer/Counter 1 initialization
                 ; 0000 0325 // Clock source: System Clock
                 ; 0000 0326 // Clock value: 19.531 kHz
                 ; 0000 0327 // Mode: Normal top=0xFFFF
                 ; 0000 0328 // OC1A output: Disconnected
                 ; 0000 0329 // OC1B output: Disconnected
                 ; 0000 032A // OC1C output: Disconnected
                 ; 0000 032B // Noise Canceler: Off
                 ; 0000 032C // Input Capture on Falling Edge
                 ; 0000 032D // Timer Period: 0.99999 s
                 ; 0000 032E // Timer1 Overflow Interrupt: On
                 ; 0000 032F // Input Capture Interrupt: Off
                 ; 0000 0330 // Compare A Match Interrupt: Off
                 ; 0000 0331 // Compare B Match Interrupt: Off
                 ; 0000 0332 // Compare C Match Interrupt: Off
                 ; 0000 0333 TCCR1A=(0<<COM1A1) | (0<<COM1A0) | (0<<COM1B1) | (0<<COM1B0) | (0<<COM1C1) | (0<<COM1C0) | (0<<WGM11) | (0<<WGM10);
001ad5 bdef      	OUT  0x2F,R30
                 ; 0000 0334 TCCR1B=(0<<ICNC1) | (0<<ICES1) | (0<<WGM13) | (0<<WGM12) | (1<<CS12) | (0<<CS11) | (1<<CS10);
001ad6 e0e4      	LDI  R30,LOW(4)
001ad7 bdee      	OUT  0x2E,R30
                 ; 0000 0335 TCNT1H=0xB3;
001ad8 ebe3      	LDI  R30,LOW(179)
001ad9 bded      	OUT  0x2D,R30
                 ; 0000 0336 TCNT1L=0xB5;
001ada ebe5      	LDI  R30,LOW(181)
001adb bdec      	OUT  0x2C,R30
                 ; 0000 0337 ICR1H=0x00;
001adc e0e0      	LDI  R30,LOW(0)
001add bde7      	OUT  0x27,R30
                 ; 0000 0338 ICR1L=0x00;
001ade bde6      	OUT  0x26,R30
                 ; 0000 0339 OCR1AH=0x00;
001adf bdeb      	OUT  0x2B,R30
                 ; 0000 033A OCR1AL=0x00;
001ae0 bdea      	OUT  0x2A,R30
                 ; 0000 033B OCR1BH=0x00;
001ae1 bde9      	OUT  0x29,R30
                 ; 0000 033C OCR1BL=0x00;
001ae2 bde8      	OUT  0x28,R30
                 ; 0000 033D OCR1CH=0x00;
001ae3 93e0 0079 	STS  121,R30
                 ; 0000 033E OCR1CL=0x00;
001ae5 93e0 0078 	STS  120,R30
                 ; 0000 033F 
                 ; 0000 0340 
                 ; 0000 0341 // Timer(s)/Counter(s) Interrupt(s) initialization
                 ; 0000 0342 TIMSK=(0<<OCIE2) | (0<<TOIE2) | (0<<TICIE1) | (0<<OCIE1A) | (0<<OCIE1B) | (1<<TOIE1) | (0<<OCIE0) | (0<<TOIE0);
001ae7 e0e4      	LDI  R30,LOW(4)
001ae8 bfe7      	OUT  0x37,R30
                 ; 0000 0343 ETIMSK=(0<<TICIE3) | (0<<OCIE3A) | (0<<OCIE3B) | (0<<TOIE3) | (0<<OCIE3C) | (0<<OCIE1C);
001ae9 e0e0      	LDI  R30,LOW(0)
001aea 93e0 007d 	STS  125,R30
                 ; 0000 0344 
                 ; 0000 0345 
                 ; 0000 0346 // External SRAM page configuration:
                 ; 0000 0347 MCUCR|=(1<<SRE);
001aec b7e5      	IN   R30,0x35
001aed 68e0      	ORI  R30,0x80
001aee bfe5      	OUT  0x35,R30
                 ; 0000 0348 
                 ; 0000 0349 // USART0 initialization
                 ; 0000 034A // Communication Parameters: 8 Data, 1 Stop, No Parity
                 ; 0000 034B // USART0 Receiver: On
                 ; 0000 034C // USART0 Transmitter: On
                 ; 0000 034D // USART0 Mode: Asynchronous
                 ; 0000 034E // USART0 Baud Rate: 9600
                 ; 0000 034F UCSR0A=(0<<RXC0) | (0<<TXC0) | (0<<UDRE0) | (0<<FE0) | (0<<DOR0) | (0<<UPE0) | (0<<U2X0) | (0<<MPCM0);
001aef e0e0      	LDI  R30,LOW(0)
001af0 b9eb      	OUT  0xB,R30
                 ; 0000 0350 UCSR0B=(1<<RXCIE0) | (1<<TXCIE0) | (0<<UDRIE0) | (1<<RXEN0) | (1<<TXEN0) | (0<<UCSZ02) | (0<<RXB80) | (0<<TXB80);
001af1 ede8      	LDI  R30,LOW(216)
001af2 b9ea      	OUT  0xA,R30
                 ; 0000 0351 UCSR0C=(0<<UMSEL0) | (0<<UPM01) | (0<<UPM00) | (0<<USBS0) | (1<<UCSZ01) | (1<<UCSZ00) | (0<<UCPOL0);
001af3 e0e6      	LDI  R30,LOW(6)
001af4 93e0 0095 	STS  149,R30
                 ; 0000 0352 UBRR0H=0x00;
001af6 e0e0      	LDI  R30,LOW(0)
001af7 93e0 0090 	STS  144,R30
                 ; 0000 0353 UBRR0L=0x81;
001af9 e8e1      	LDI  R30,LOW(129)
001afa b9e9      	OUT  0x9,R30
                 ; 0000 0354 
                 ; 0000 0355 // ADC initialization
                 ; 0000 0356 // ADC Clock frequency: 156.250 kHz
                 ; 0000 0357 // ADC Voltage Reference: Int., cap. on AREF
                 ; 0000 0358 // Only the 8 most significant bits of
                 ; 0000 0359 // the AD conversion result are used
                 ; 0000 035A ADMUX=ADC_VREF_TYPE;
001afb eee0      	LDI  R30,LOW(224)
001afc b9e7      	OUT  0x7,R30
                 ; 0000 035B ADCSRA=(1<<ADEN) | (0<<ADSC) | (0<<ADFR) | (0<<ADIF) | (0<<ADIE) | (1<<ADPS2) | (1<<ADPS1) | (1<<ADPS0);
001afd e8e7      	LDI  R30,LOW(135)
001afe b9e6      	OUT  0x6,R30
                 ; 0000 035C SFIOR=(0<<ACME);
001aff e0e0      	LDI  R30,LOW(0)
001b00 bde0      	OUT  0x20,R30
                 ; 0000 035D 
                 ; 0000 035E // Bit-Banged I2C Bus initialization
                 ; 0000 035F // I2C Port: PORTD
                 ; 0000 0360 // I2C SDA bit: 1
                 ; 0000 0361 // I2C SCL bit: 0
                 ; 0000 0362 // Bit Rate: 100 kHz
                 ; 0000 0363 // Note: I2C settings are specified in the
                 ; 0000 0364 // Project|Configure|C Compiler|Libraries|I2C menu.
                 ; 0000 0365 i2c_init();
001b01 940e 20ba 	CALL _i2c_init
                 ; 0000 0366 
                 ; 0000 0367 // DS1307 Real Time Clock initialization
                 ; 0000 0368 // Square wave output on pin SQW/OUT: On
                 ; 0000 0369 // Square wave frequency: 1Hz
                 ; 0000 036A rtc_init(0,1,0);
001b03 e0e0      	LDI  R30,LOW(0)
001b04 93ea      	ST   -Y,R30
001b05 e0e1      	LDI  R30,LOW(1)
001b06 93ea      	ST   -Y,R30
001b07 e0a0      	LDI  R26,LOW(0)
001b08 940e 1d5a 	CALL _rtc_init
                 ; 0000 036B 
                 ; 0000 036C // Global enable interrupts
                 ; 0000 036D #asm("sei")
001b0a 9478      	sei
                 ; 0000 036E 
                 ; 0000 036F }
001b0b 9508      	RET
                 ; .FEND
                 ;#include "dht11.h"
                 	#ifndef __SLEEP_DEFINED__
                 	#endif
                 ;
                 ;
                 ;#define DHT11_PIN  6
                 ;
                 ;void Request()                /* Microcontroller send start pulse/request */
                 ; 0001 0007 {
                 
                 	.CSEG
                 _Request:
                 ; .FSTART _Request
                 ; 0001 0008     DDRD |= (1<<DHT11_PIN);
001b0c 9a8e      	SBI  0x11,6
                 ; 0001 0009     PORTD &= ~(1<<DHT11_PIN);    /* set to low pin */
001b0d 9896      	CBI  0x12,6
                 ; 0001 000A     delay_ms(20);            /* wait for 20ms */
001b0e e1a4      	LDI  R26,LOW(20)
001b0f e0b0      	LDI  R27,0
001b10 940e 210b 	CALL _delay_ms
                 ; 0001 000B     PORTD |= (1<<DHT11_PIN);    /* set to high pin */
001b12 9a96      	SBI  0x12,6
                 ; 0001 000C }
001b13 9508      	RET
                 ; .FEND
                 ;
                 ;void Response()                /* receive response from DHT11 */
                 ; 0001 000F {
                 _Response:
                 ; .FSTART _Response
                 ; 0001 0010     DDRD &= ~(1<<DHT11_PIN);
001b14 988e      	CBI  0x11,6
                 ; 0001 0011     while(PIND & (1<<DHT11_PIN));
                 _0x20003:
001b15 9986      	SBIC 0x10,6
001b16 cffe      	RJMP _0x20003
                 ; 0001 0012     while((PIND & (1<<DHT11_PIN))==0);
                 _0x20006:
001b17 9b86      	SBIS 0x10,6
001b18 cffe      	RJMP _0x20006
                 ; 0001 0013     while(PIND & (1<<DHT11_PIN));
                 _0x20009:
001b19 9986      	SBIC 0x10,6
001b1a cffe      	RJMP _0x20009
                 ; 0001 0014 }
001b1b 9508      	RET
                 ; .FEND
                 ;
                 ;char Receive_data()            /* receive data */
                 ; 0001 0017 {
                 _Receive_data:
                 ; .FSTART _Receive_data
                 ; 0001 0018     char q,c=0;
                 ; 0001 0019     for ( q=0; q<8; q++)
001b1c 931a      	ST   -Y,R17
001b1d 930a      	ST   -Y,R16
                 ;	q -> R17
                 ;	c -> R16
001b1e e000      	LDI  R16,0
001b1f e010      	LDI  R17,LOW(0)
                 _0x2000D:
001b20 3018      	CPI  R17,8
001b21 f488      	BRSH _0x2000E
                 ; 0001 001A     {
                 ; 0001 001B         while((PIND & (1<<DHT11_PIN)) == 0);  /* check received bit 0 or 1 */
                 _0x2000F:
001b22 9b86      	SBIS 0x10,6
001b23 cffe      	RJMP _0x2000F
                 ; 0001 001C         delay_us(30);
                +
001b24 ec88     +LDI R24 , LOW ( 200 )
                +__DELAY_USB_LOOP :
001b25 958a     +DEC R24
001b26 f7f1     +BRNE __DELAY_USB_LOOP
                 	__DELAY_USB 200
                 ; 0001 001D         if(PIND & (1<<DHT11_PIN))/* if high pulse is greater than 30ms */
001b27 9b86      	SBIS 0x10,6
001b28 c005      	RJMP _0x20012
                 ; 0001 001E         c = (c<<1)|(0x01);    /* then its logic HIGH */
001b29 2fe0      	MOV  R30,R16
001b2a 0fee      	LSL  R30
001b2b 60e1      	ORI  R30,1
001b2c 2f0e      	MOV  R16,R30
                 ; 0001 001F         else            /* otherwise its logic LOW */
001b2d c001      	RJMP _0x20013
                 _0x20012:
                 ; 0001 0020         c = (c<<1);
001b2e 0f00      	LSL  R16
                 ; 0001 0021         while(PIND & (1<<DHT11_PIN));
                 _0x20013:
                 _0x20014:
001b2f 9986      	SBIC 0x10,6
001b30 cffe      	RJMP _0x20014
                 ; 0001 0022     }
001b31 5f1f      	SUBI R17,-1
001b32 cfed      	RJMP _0x2000D
                 _0x2000E:
                 ; 0001 0023     return c;
001b33 2fe0      	MOV  R30,R16
001b34 9109      	LD   R16,Y+
001b35 9119      	LD   R17,Y+
001b36 9508      	RET
                 ; 0001 0024 }
                 ; .FEND
                 ;
                 ;
                 ;#include "lcd20x4.h"
                 	#ifndef __SLEEP_DEFINED__
                 	#endif
                 ;
                 ;//LCD
                 ;#define LCDE_H (PORTG |= (1<<3))
                 ;#define LCDE_L (PORTG &= ~(1<<3))
                 ;
                 ;#define LCD_DATA *(unsigned char *) (Base_address + CS9)
                 ;#define LCD_INS *(unsigned char *) (Base_address + CS10)
                 ;
                 ;void LcdInit()
                 ; 0002 000B {
                 
                 	.CSEG
                 _LcdInit:
                 ; .FSTART _LcdInit
                 ; 0002 000C     LCD_INS = 0x38; LCDE_H; delay_us(1); LCDE_L; delay_us(1);
001b37 e3e8      	LDI  R30,LOW(56)
001b38 940e 2020 	CALL SUBOPT_0x61
                 ; 0002 000D     delay_us(200);
                 ; 0002 000E     LCD_INS = 0x0C; LCDE_H; delay_us(1); LCDE_L; delay_us(1);
001b3a e0ec      	LDI  R30,LOW(12)
001b3b 940e 2020 	CALL SUBOPT_0x61
                 ; 0002 000F     delay_us(200);
                 ; 0002 0010     LCD_INS = 0x06; LCDE_H; delay_us(1); LCDE_L; delay_us(1);
001b3d e0e6      	LDI  R30,LOW(6)
001b3e 940e 2020 	CALL SUBOPT_0x61
                 ; 0002 0011     delay_us(200);
                 ; 0002 0012     //LCD_INS = 0x01; LCDE_H; delay_us(1); LCDE_L; delay_us(1);
                 ; 0002 0013     //delay_us(200);
                 ; 0002 0014 }
001b40 9508      	RET
                 ; .FEND
                 ;
                 ;void PrintFlash(flash char *str, unsigned char row , unsigned char col)
                 ; 0002 0017 {
                 _PrintFlash:
                 ; .FSTART _PrintFlash
                 ; 0002 0018     unsigned char add;
                 ; 0002 0019     switch(row)
001b41 93aa      	ST   -Y,R26
001b42 931a      	ST   -Y,R17
                 ;	*str -> Y+3
                 ;	row -> Y+2
                 ;	col -> Y+1
                 ;	add -> R17
001b43 81ea      	LDD  R30,Y+2
001b44 e0f0      	LDI  R31,0
                 ; 0002 001A     {
                 ; 0002 001B         case 0: add = 0x80; break;
001b45 9730      	SBIW R30,0
001b46 f411      	BRNE _0x40006
001b47 e810      	LDI  R17,LOW(128)
001b48 c011      	RJMP _0x40005
                 ; 0002 001C         case 1: add = 0xC0; break;
                 _0x40006:
001b49 30e1      	CPI  R30,LOW(0x1)
001b4a e0a0      	LDI  R26,HIGH(0x1)
001b4b 07fa      	CPC  R31,R26
001b4c f411      	BRNE _0x40007
001b4d ec10      	LDI  R17,LOW(192)
001b4e c00b      	RJMP _0x40005
                 ; 0002 001D         case 2: add = 0x94; break;
                 _0x40007:
001b4f 30e2      	CPI  R30,LOW(0x2)
001b50 e0a0      	LDI  R26,HIGH(0x2)
001b51 07fa      	CPC  R31,R26
001b52 f411      	BRNE _0x40008
001b53 e914      	LDI  R17,LOW(148)
001b54 c005      	RJMP _0x40005
                 ; 0002 001E         case 3: add = 0xD4; break;
                 _0x40008:
001b55 30e3      	CPI  R30,LOW(0x3)
001b56 e0a0      	LDI  R26,HIGH(0x3)
001b57 07fa      	CPC  R31,R26
001b58 f409      	BRNE _0x40005
001b59 ed14      	LDI  R17,LOW(212)
                 ; 0002 001F     }
                 _0x40005:
                 ; 0002 0020     LCD_INS = add + col;
001b5a 940e 2037 	CALL SUBOPT_0x62
                 ; 0002 0021     LCDE_H; delay_us(1); LCDE_L; delay_us(100);
                 ; 0002 0022     while(*(str) != '\0')
                 _0x4000A:
001b5c 81eb      	LDD  R30,Y+3
001b5d 81fc      	LDD  R31,Y+3+1
001b5e 91e4      	LPM  R30,Z
001b5f 30e0      	CPI  R30,0
001b60 f051      	BREQ _0x4000C
                 ; 0002 0023     {
                 ; 0002 0024         LCD_DATA = *str++;
001b61 81eb      	LDD  R30,Y+3
001b62 81fc      	LDD  R31,Y+3+1
001b63 9631      	ADIW R30,1
001b64 83eb      	STD  Y+3,R30
001b65 83fc      	STD  Y+3+1,R31
001b66 9731      	SBIW R30,1
001b67 91e4      	LPM  R30,Z
001b68 940e 204d 	CALL SUBOPT_0x63
                 ; 0002 0025         LCDE_H; delay_us(1); LCDE_L; delay_us(100);
                 ; 0002 0026     }
001b6a cff1      	RJMP _0x4000A
                 _0x4000C:
                 ; 0002 0027 }
001b6b 8118      	LDD  R17,Y+0
001b6c c06a      	RJMP _0x20A0003
                 ; .FEND
                 ;
                 ;void Print( char *str, unsigned char row , unsigned char col)
                 ; 0002 002A {
                 _Print:
                 ; .FSTART _Print
                 ; 0002 002B     unsigned char add;
                 ; 0002 002C     switch(row)
001b6d 93aa      	ST   -Y,R26
001b6e 931a      	ST   -Y,R17
                 ;	*str -> Y+3
                 ;	row -> Y+2
                 ;	col -> Y+1
                 ;	add -> R17
001b6f 81ea      	LDD  R30,Y+2
001b70 e0f0      	LDI  R31,0
                 ; 0002 002D     {
                 ; 0002 002E         case 0: add = 0x80; break;
001b71 9730      	SBIW R30,0
001b72 f411      	BRNE _0x40010
001b73 e810      	LDI  R17,LOW(128)
001b74 c011      	RJMP _0x4000F
                 ; 0002 002F         case 1: add = 0xC0; break;
                 _0x40010:
001b75 30e1      	CPI  R30,LOW(0x1)
001b76 e0a0      	LDI  R26,HIGH(0x1)
001b77 07fa      	CPC  R31,R26
001b78 f411      	BRNE _0x40011
001b79 ec10      	LDI  R17,LOW(192)
001b7a c00b      	RJMP _0x4000F
                 ; 0002 0030         case 2: add = 0x94; break;
                 _0x40011:
001b7b 30e2      	CPI  R30,LOW(0x2)
001b7c e0a0      	LDI  R26,HIGH(0x2)
001b7d 07fa      	CPC  R31,R26
001b7e f411      	BRNE _0x40012
001b7f e914      	LDI  R17,LOW(148)
001b80 c005      	RJMP _0x4000F
                 ; 0002 0031         case 3: add = 0xD4; break;
                 _0x40012:
001b81 30e3      	CPI  R30,LOW(0x3)
001b82 e0a0      	LDI  R26,HIGH(0x3)
001b83 07fa      	CPC  R31,R26
001b84 f409      	BRNE _0x4000F
001b85 ed14      	LDI  R17,LOW(212)
                 ; 0002 0032     }
                 _0x4000F:
                 ; 0002 0033     LCD_INS = add + col;
001b86 940e 2037 	CALL SUBOPT_0x62
                 ; 0002 0034     LCDE_H; delay_us(1); LCDE_L; delay_us(100);
                 ; 0002 0035     while(*(str) != '\0')
                 _0x40014:
001b88 81ab      	LDD  R26,Y+3
001b89 81bc      	LDD  R27,Y+3+1
001b8a 91ec      	LD   R30,X
001b8b 30e0      	CPI  R30,0
001b8c f031      	BREQ _0x40016
                 ; 0002 0036     {
                 ; 0002 0037         LCD_DATA = *str++;
001b8d 91ed      	LD   R30,X+
001b8e 83ab      	STD  Y+3,R26
001b8f 83bc      	STD  Y+3+1,R27
001b90 940e 204d 	CALL SUBOPT_0x63
                 ; 0002 0038         LCDE_H; delay_us(1); LCDE_L; delay_us(100);
                 ; 0002 0039     }
001b92 cff5      	RJMP _0x40014
                 _0x40016:
                 ; 0002 003A }
001b93 8118      	LDD  R17,Y+0
001b94 c042      	RJMP _0x20A0003
                 ; .FEND
                 	#ifndef __SLEEP_DEFINED__
                 	#endif
                 
                 	.CSEG
                 _put_usart_G100:
                 ; .FSTART _put_usart_G100
001b95 93ba      	ST   -Y,R27
001b96 93aa      	ST   -Y,R26
001b97 81aa      	LDD  R26,Y+2
001b98 940e 13ea 	CALL _putchar
001b9a 81a8      	LD   R26,Y
001b9b 81b9      	LDD  R27,Y+1
001b9c 940e 1f01 	CALL SUBOPT_0x30
001b9e c1d3      	RJMP _0x20A0001
                 ; .FEND
                 _put_buff_G100:
                 ; .FSTART _put_buff_G100
001b9f 93ba      	ST   -Y,R27
001ba0 93aa      	ST   -Y,R26
001ba1 931a      	ST   -Y,R17
001ba2 930a      	ST   -Y,R16
001ba3 81aa      	LDD  R26,Y+2
001ba4 81bb      	LDD  R27,Y+2+1
001ba5 9612      	ADIW R26,2
001ba6 940e 2160 	CALL __GETW1P
001ba8 9730      	SBIW R30,0
001ba9 f129      	BREQ _0x2000010
001baa 81aa      	LDD  R26,Y+2
001bab 81bb      	LDD  R27,Y+2+1
001bac 9614      	ADIW R26,4
001bad 940e 2160 	CALL __GETW1P
001baf 018f      	MOVW R16,R30
001bb0 9730      	SBIW R30,0
001bb1 f061      	BREQ _0x2000012
                +
001bb2 3002     +CPI R16 , LOW ( 2 )
001bb3 e0e0     +LDI R30 , HIGH ( 2 )
001bb4 071e     +CPC R17 , R30
                 	__CPWRN 16,17,2
001bb5 f080      	BRLO _0x2000013
001bb6 01f8      	MOVW R30,R16
001bb7 9731      	SBIW R30,1
001bb8 018f      	MOVW R16,R30
                +
001bb9 81aa     +LDD R26 , Y + 2
001bba 81bb     +LDD R27 , Y + 2 + 1
001bbb 9614     +ADIW R26 , 4
001bbc 93ed     +ST X + , R30
001bbd 93fc     +ST X , R31
                 	__PUTW1SNS 2,4
                 _0x2000012:
001bbe 81aa      	LDD  R26,Y+2
001bbf 81bb      	LDD  R27,Y+2+1
001bc0 9612      	ADIW R26,2
001bc1 940e 1f01 	CALL SUBOPT_0x30
001bc3 9731      	SBIW R30,1
001bc4 81ac      	LDD  R26,Y+4
001bc5 83a0      	STD  Z+0,R26
                 _0x2000013:
001bc6 81aa      	LDD  R26,Y+2
001bc7 81bb      	LDD  R27,Y+2+1
001bc8 940e 2160 	CALL __GETW1P
001bca 23ff      	TST  R31
001bcb f012      	BRMI _0x2000014
001bcc 940e 1f01 	CALL SUBOPT_0x30
                 _0x2000014:
001bce c006      	RJMP _0x2000015
                 _0x2000010:
001bcf 81aa      	LDD  R26,Y+2
001bd0 81bb      	LDD  R27,Y+2+1
001bd1 efef      	LDI  R30,LOW(65535)
001bd2 efff      	LDI  R31,HIGH(65535)
001bd3 93ed      	ST   X+,R30
001bd4 93fc      	ST   X,R31
                 _0x2000015:
001bd5 8119      	LDD  R17,Y+1
001bd6 8108      	LDD  R16,Y+0
                 _0x20A0003:
001bd7 9625      	ADIW R28,5
001bd8 9508      	RET
                 ; .FEND
                 __print_G100:
                 ; .FSTART __print_G100
001bd9 93ba      	ST   -Y,R27
001bda 93aa      	ST   -Y,R26
001bdb 9726      	SBIW R28,6
001bdc 940e 2170 	CALL __SAVELOCR6
001bde e010      	LDI  R17,0
001bdf 85ac      	LDD  R26,Y+12
001be0 85bd      	LDD  R27,Y+12+1
001be1 e0e0      	LDI  R30,LOW(0)
001be2 e0f0      	LDI  R31,HIGH(0)
001be3 93ed      	ST   X+,R30
001be4 93fc      	ST   X,R31
                 _0x2000016:
001be5 89ea      	LDD  R30,Y+18
001be6 89fb      	LDD  R31,Y+18+1
001be7 9631      	ADIW R30,1
001be8 8bea      	STD  Y+18,R30
001be9 8bfb      	STD  Y+18+1,R31
001bea 9731      	SBIW R30,1
001beb 91e4      	LPM  R30,Z
001bec 2f2e      	MOV  R18,R30
001bed 30e0      	CPI  R30,0
001bee f409      	BRNE PC+2
001bef c115      	RJMP _0x2000018
001bf0 2fe1      	MOV  R30,R17
001bf1 30e0      	CPI  R30,0
001bf2 f439      	BRNE _0x200001C
001bf3 3225      	CPI  R18,37
001bf4 f411      	BRNE _0x200001D
001bf5 e011      	LDI  R17,LOW(1)
001bf6 c002      	RJMP _0x200001E
                 _0x200001D:
001bf7 940e 2061 	CALL SUBOPT_0x64
                 _0x200001E:
001bf9 c10a      	RJMP _0x200001B
                 _0x200001C:
001bfa 30e1      	CPI  R30,LOW(0x1)
001bfb f4a9      	BRNE _0x200001F
001bfc 3225      	CPI  R18,37
001bfd f419      	BRNE _0x2000020
001bfe 940e 2061 	CALL SUBOPT_0x64
001c00 c102      	RJMP _0x20000CC
                 _0x2000020:
001c01 e012      	LDI  R17,LOW(2)
001c02 e040      	LDI  R20,LOW(0)
001c03 e000      	LDI  R16,LOW(0)
001c04 322d      	CPI  R18,45
001c05 f411      	BRNE _0x2000021
001c06 e001      	LDI  R16,LOW(1)
001c07 c0fc      	RJMP _0x200001B
                 _0x2000021:
001c08 322b      	CPI  R18,43
001c09 f411      	BRNE _0x2000022
001c0a e24b      	LDI  R20,LOW(43)
001c0b c0f8      	RJMP _0x200001B
                 _0x2000022:
001c0c 3220      	CPI  R18,32
001c0d f411      	BRNE _0x2000023
001c0e e240      	LDI  R20,LOW(32)
001c0f c0f4      	RJMP _0x200001B
                 _0x2000023:
001c10 c002      	RJMP _0x2000024
                 _0x200001F:
001c11 30e2      	CPI  R30,LOW(0x2)
001c12 f439      	BRNE _0x2000025
                 _0x2000024:
001c13 e050      	LDI  R21,LOW(0)
001c14 e013      	LDI  R17,LOW(3)
001c15 3320      	CPI  R18,48
001c16 f411      	BRNE _0x2000026
001c17 6800      	ORI  R16,LOW(128)
001c18 c0eb      	RJMP _0x200001B
                 _0x2000026:
001c19 c003      	RJMP _0x2000027
                 _0x2000025:
001c1a 30e3      	CPI  R30,LOW(0x3)
001c1b f009      	BREQ PC+2
001c1c c0e7      	RJMP _0x200001B
                 _0x2000027:
001c1d 3320      	CPI  R18,48
001c1e f010      	BRLO _0x200002A
001c1f 332a      	CPI  R18,58
001c20 f008      	BRLO _0x200002B
                 _0x200002A:
001c21 c007      	RJMP _0x2000029
                 _0x200002B:
001c22 e0aa      	LDI  R26,LOW(10)
001c23 9f5a      	MUL  R21,R26
001c24 2d50      	MOV  R21,R0
001c25 2fe2      	MOV  R30,R18
001c26 53e0      	SUBI R30,LOW(48)
001c27 0f5e      	ADD  R21,R30
001c28 c0db      	RJMP _0x200001B
                 _0x2000029:
001c29 2fe2      	MOV  R30,R18
001c2a 36e3      	CPI  R30,LOW(0x63)
001c2b f449      	BRNE _0x200002F
001c2c 940e 2068 	CALL SUBOPT_0x65
001c2e 89e8      	LDD  R30,Y+16
001c2f 89f9      	LDD  R31,Y+16+1
001c30 81a4      	LDD  R26,Z+4
001c31 93aa      	ST   -Y,R26
001c32 940e 206e 	CALL SUBOPT_0x66
001c34 c0ce      	RJMP _0x2000030
                 _0x200002F:
001c35 37e3      	CPI  R30,LOW(0x73)
001c36 f441      	BRNE _0x2000032
001c37 940e 2068 	CALL SUBOPT_0x65
001c39 940e 2074 	CALL SUBOPT_0x67
001c3b 940e 1da8 	CALL _strlen
001c3d 2f1e      	MOV  R17,R30
001c3e c00a      	RJMP _0x2000033
                 _0x2000032:
001c3f 37e0      	CPI  R30,LOW(0x70)
001c40 f461      	BRNE _0x2000035
001c41 940e 2068 	CALL SUBOPT_0x65
001c43 940e 2074 	CALL SUBOPT_0x67
001c45 940e 1db4 	CALL _strlenf
001c47 2f1e      	MOV  R17,R30
001c48 6008      	ORI  R16,LOW(8)
                 _0x2000033:
001c49 6002      	ORI  R16,LOW(2)
001c4a 770f      	ANDI R16,LOW(127)
001c4b e030      	LDI  R19,LOW(0)
001c4c c034      	RJMP _0x2000036
                 _0x2000035:
001c4d 36e4      	CPI  R30,LOW(0x64)
001c4e f011      	BREQ _0x2000039
001c4f 36e9      	CPI  R30,LOW(0x69)
001c50 f411      	BRNE _0x200003A
                 _0x2000039:
001c51 6004      	ORI  R16,LOW(4)
001c52 c002      	RJMP _0x200003B
                 _0x200003A:
001c53 37e5      	CPI  R30,LOW(0x75)
001c54 f431      	BRNE _0x200003C
                 _0x200003B:
001c55 e8ec      	LDI  R30,LOW(_tbl10_G100*2)
001c56 e1fe      	LDI  R31,HIGH(_tbl10_G100*2)
001c57 83ee      	STD  Y+6,R30
001c58 83ff      	STD  Y+6+1,R31
001c59 e015      	LDI  R17,LOW(5)
001c5a c00c      	RJMP _0x200003D
                 _0x200003C:
001c5b 35e8      	CPI  R30,LOW(0x58)
001c5c f411      	BRNE _0x200003F
001c5d 6008      	ORI  R16,LOW(8)
001c5e c003      	RJMP _0x2000040
                 _0x200003F:
001c5f 37e8      	CPI  R30,LOW(0x78)
001c60 f009      	BREQ PC+2
001c61 c0a1      	RJMP _0x2000071
                 _0x2000040:
001c62 e9e6      	LDI  R30,LOW(_tbl16_G100*2)
001c63 e1fe      	LDI  R31,HIGH(_tbl16_G100*2)
001c64 83ee      	STD  Y+6,R30
001c65 83ff      	STD  Y+6+1,R31
001c66 e014      	LDI  R17,LOW(4)
                 _0x200003D:
001c67 ff02      	SBRS R16,2
001c68 c014      	RJMP _0x2000042
001c69 940e 2068 	CALL SUBOPT_0x65
001c6b 940e 207e 	CALL SUBOPT_0x68
001c6d 85ab      	LDD  R26,Y+11
001c6e 23aa      	TST  R26
001c6f f43a      	BRPL _0x2000043
001c70 85ea      	LDD  R30,Y+10
001c71 85fb      	LDD  R31,Y+10+1
001c72 940e 2119 	CALL __ANEGW1
001c74 87ea      	STD  Y+10,R30
001c75 87fb      	STD  Y+10+1,R31
001c76 e24d      	LDI  R20,LOW(45)
                 _0x2000043:
001c77 3040      	CPI  R20,0
001c78 f011      	BREQ _0x2000044
001c79 5f1f      	SUBI R17,-LOW(1)
001c7a c001      	RJMP _0x2000045
                 _0x2000044:
001c7b 7f0b      	ANDI R16,LOW(251)
                 _0x2000045:
001c7c c004      	RJMP _0x2000046
                 _0x2000042:
001c7d 940e 2068 	CALL SUBOPT_0x65
001c7f 940e 207e 	CALL SUBOPT_0x68
                 _0x2000046:
                 _0x2000036:
001c81 fd00      	SBRC R16,0
001c82 c011      	RJMP _0x2000047
                 _0x2000048:
001c83 1715      	CP   R17,R21
001c84 f478      	BRSH _0x200004A
001c85 ff07      	SBRS R16,7
001c86 c008      	RJMP _0x200004B
001c87 ff02      	SBRS R16,2
001c88 c004      	RJMP _0x200004C
001c89 7f0b      	ANDI R16,LOW(251)
001c8a 2f24      	MOV  R18,R20
001c8b 5011      	SUBI R17,LOW(1)
001c8c c001      	RJMP _0x200004D
                 _0x200004C:
001c8d e320      	LDI  R18,LOW(48)
                 _0x200004D:
001c8e c001      	RJMP _0x200004E
                 _0x200004B:
001c8f e220      	LDI  R18,LOW(32)
                 _0x200004E:
001c90 940e 2061 	CALL SUBOPT_0x64
001c92 5051      	SUBI R21,LOW(1)
001c93 cfef      	RJMP _0x2000048
                 _0x200004A:
                 _0x2000047:
001c94 2f31      	MOV  R19,R17
001c95 ff01      	SBRS R16,1
001c96 c017      	RJMP _0x200004F
                 _0x2000050:
001c97 3030      	CPI  R19,0
001c98 f0a1      	BREQ _0x2000052
001c99 ff03      	SBRS R16,3
001c9a c006      	RJMP _0x2000053
001c9b 81ee      	LDD  R30,Y+6
001c9c 81ff      	LDD  R31,Y+6+1
001c9d 9125      	LPM  R18,Z+
001c9e 83ee      	STD  Y+6,R30
001c9f 83ff      	STD  Y+6+1,R31
001ca0 c005      	RJMP _0x2000054
                 _0x2000053:
001ca1 81ae      	LDD  R26,Y+6
001ca2 81bf      	LDD  R27,Y+6+1
001ca3 912d      	LD   R18,X+
001ca4 83ae      	STD  Y+6,R26
001ca5 83bf      	STD  Y+6+1,R27
                 _0x2000054:
001ca6 940e 2061 	CALL SUBOPT_0x64
001ca8 3050      	CPI  R21,0
001ca9 f009      	BREQ _0x2000055
001caa 5051      	SUBI R21,LOW(1)
                 _0x2000055:
001cab 5031      	SUBI R19,LOW(1)
001cac cfea      	RJMP _0x2000050
                 _0x2000052:
001cad c04b      	RJMP _0x2000056
                 _0x200004F:
                 _0x2000058:
001cae e320      	LDI  R18,LOW(48)
001caf 81ee      	LDD  R30,Y+6
001cb0 81ff      	LDD  R31,Y+6+1
001cb1 940e 2164 	CALL __GETW1PF
001cb3 87e8      	STD  Y+8,R30
001cb4 87f9      	STD  Y+8+1,R31
001cb5 81ee      	LDD  R30,Y+6
001cb6 81ff      	LDD  R31,Y+6+1
001cb7 9632      	ADIW R30,2
001cb8 83ee      	STD  Y+6,R30
001cb9 83ff      	STD  Y+6+1,R31
                 _0x200005A:
001cba 85e8      	LDD  R30,Y+8
001cbb 85f9      	LDD  R31,Y+8+1
001cbc 85aa      	LDD  R26,Y+10
001cbd 85bb      	LDD  R27,Y+10+1
001cbe 17ae      	CP   R26,R30
001cbf 07bf      	CPC  R27,R31
001cc0 f050      	BRLO _0x200005C
001cc1 5f2f      	SUBI R18,-LOW(1)
001cc2 85a8      	LDD  R26,Y+8
001cc3 85b9      	LDD  R27,Y+8+1
001cc4 85ea      	LDD  R30,Y+10
001cc5 85fb      	LDD  R31,Y+10+1
001cc6 1bea      	SUB  R30,R26
001cc7 0bfb      	SBC  R31,R27
001cc8 87ea      	STD  Y+10,R30
001cc9 87fb      	STD  Y+10+1,R31
001cca cfef      	RJMP _0x200005A
                 _0x200005C:
001ccb 332a      	CPI  R18,58
001ccc f028      	BRLO _0x200005D
001ccd ff03      	SBRS R16,3
001cce c002      	RJMP _0x200005E
001ccf 5f29      	SUBI R18,-LOW(7)
001cd0 c001      	RJMP _0x200005F
                 _0x200005E:
001cd1 5d29      	SUBI R18,-LOW(39)
                 _0x200005F:
                 _0x200005D:
001cd2 fd04      	SBRC R16,4
001cd3 c01a      	RJMP _0x2000061
001cd4 3321      	CPI  R18,49
001cd5 f420      	BRSH _0x2000063
001cd6 85a8      	LDD  R26,Y+8
001cd7 85b9      	LDD  R27,Y+8+1
001cd8 9711      	SBIW R26,1
001cd9 f409      	BRNE _0x2000062
                 _0x2000063:
001cda c009      	RJMP _0x20000CD
                 _0x2000062:
001cdb 1753      	CP   R21,R19
001cdc f010      	BRLO _0x2000067
001cdd ff00      	SBRS R16,0
001cde c001      	RJMP _0x2000068
                 _0x2000067:
001cdf c013      	RJMP _0x2000066
                 _0x2000068:
001ce0 e220      	LDI  R18,LOW(32)
001ce1 ff07      	SBRS R16,7
001ce2 c00b      	RJMP _0x2000069
001ce3 e320      	LDI  R18,LOW(48)
                 _0x20000CD:
001ce4 6100      	ORI  R16,LOW(16)
001ce5 ff02      	SBRS R16,2
001ce6 c007      	RJMP _0x200006A
001ce7 7f0b      	ANDI R16,LOW(251)
001ce8 934a      	ST   -Y,R20
001ce9 940e 206e 	CALL SUBOPT_0x66
001ceb 3050      	CPI  R21,0
001cec f009      	BREQ _0x200006B
001ced 5051      	SUBI R21,LOW(1)
                 _0x200006B:
                 _0x200006A:
                 _0x2000069:
                 _0x2000061:
001cee 940e 2061 	CALL SUBOPT_0x64
001cf0 3050      	CPI  R21,0
001cf1 f009      	BREQ _0x200006C
001cf2 5051      	SUBI R21,LOW(1)
                 _0x200006C:
                 _0x2000066:
001cf3 5031      	SUBI R19,LOW(1)
001cf4 85a8      	LDD  R26,Y+8
001cf5 85b9      	LDD  R27,Y+8+1
001cf6 9712      	SBIW R26,2
001cf7 f008      	BRLO _0x2000059
001cf8 cfb5      	RJMP _0x2000058
                 _0x2000059:
                 _0x2000056:
001cf9 ff00      	SBRS R16,0
001cfa c008      	RJMP _0x200006D
                 _0x200006E:
001cfb 3050      	CPI  R21,0
001cfc f031      	BREQ _0x2000070
001cfd 5051      	SUBI R21,LOW(1)
001cfe e2e0      	LDI  R30,LOW(32)
001cff 93ea      	ST   -Y,R30
001d00 940e 206e 	CALL SUBOPT_0x66
001d02 cff8      	RJMP _0x200006E
                 _0x2000070:
                 _0x200006D:
                 _0x2000071:
                 _0x2000030:
                 _0x20000CC:
001d03 e010      	LDI  R17,LOW(0)
                 _0x200001B:
001d04 cee0      	RJMP _0x2000016
                 _0x2000018:
001d05 85ac      	LDD  R26,Y+12
001d06 85bd      	LDD  R27,Y+12+1
001d07 940e 2160 	CALL __GETW1P
001d09 940e 2177 	CALL __LOADLOCR6
001d0b 9664      	ADIW R28,20
001d0c 9508      	RET
                 ; .FEND
                 _sprintf:
                 ; .FSTART _sprintf
001d0d 92ff      	PUSH R15
001d0e 2ef8      	MOV  R15,R24
001d0f 9726      	SBIW R28,6
001d10 940e 2172 	CALL __SAVELOCR4
001d12 940e 2086 	CALL SUBOPT_0x69
001d14 9730      	SBIW R30,0
001d15 f419      	BRNE _0x2000072
001d16 efef      	LDI  R30,LOW(65535)
001d17 efff      	LDI  R31,HIGH(65535)
001d18 c01d      	RJMP _0x20A0002
                 _0x2000072:
001d19 01de      	MOVW R26,R28
001d1a 9616      	ADIW R26,6
001d1b 940e 2115 	CALL __ADDW2R15
001d1d 018d      	MOVW R16,R26
001d1e 940e 2086 	CALL SUBOPT_0x69
001d20 83ee      	STD  Y+6,R30
001d21 83ff      	STD  Y+6+1,R31
001d22 e0e0      	LDI  R30,LOW(0)
001d23 87e8      	STD  Y+8,R30
001d24 87e9      	STD  Y+8+1,R30
001d25 01de      	MOVW R26,R28
001d26 961a      	ADIW R26,10
001d27 940e 208d 	CALL SUBOPT_0x6A
001d29 e9ef      	LDI  R30,LOW(_put_buff_G100)
001d2a e1fb      	LDI  R31,HIGH(_put_buff_G100)
001d2b 93fa      	ST   -Y,R31
001d2c 93ea      	ST   -Y,R30
001d2d 01de      	MOVW R26,R28
001d2e 961a      	ADIW R26,10
001d2f dea9      	RCALL __print_G100
001d30 019f      	MOVW R18,R30
001d31 81ae      	LDD  R26,Y+6
001d32 81bf      	LDD  R27,Y+6+1
001d33 e0e0      	LDI  R30,LOW(0)
001d34 93ec      	ST   X,R30
001d35 01f9      	MOVW R30,R18
                 _0x20A0002:
001d36 940e 2179 	CALL __LOADLOCR4
001d38 962a      	ADIW R28,10
001d39 90ff      	POP  R15
001d3a 9508      	RET
                 ; .FEND
                 _printf:
                 ; .FSTART _printf
001d3b 92ff      	PUSH R15
001d3c 2ef8      	MOV  R15,R24
001d3d 9726      	SBIW R28,6
001d3e 931a      	ST   -Y,R17
001d3f 930a      	ST   -Y,R16
001d40 01de      	MOVW R26,R28
001d41 9614      	ADIW R26,4
001d42 940e 2115 	CALL __ADDW2R15
001d44 018d      	MOVW R16,R26
001d45 e0e0      	LDI  R30,LOW(0)
001d46 83ec      	STD  Y+4,R30
001d47 83ed      	STD  Y+4+1,R30
001d48 83ee      	STD  Y+6,R30
001d49 83ef      	STD  Y+6+1,R30
001d4a 01de      	MOVW R26,R28
001d4b 9618      	ADIW R26,8
001d4c 940e 208d 	CALL SUBOPT_0x6A
001d4e e9e5      	LDI  R30,LOW(_put_usart_G100)
001d4f e1fb      	LDI  R31,HIGH(_put_usart_G100)
001d50 93fa      	ST   -Y,R31
001d51 93ea      	ST   -Y,R30
001d52 01de      	MOVW R26,R28
001d53 9618      	ADIW R26,8
001d54 de84      	RCALL __print_G100
001d55 8119      	LDD  R17,Y+1
001d56 8108      	LDD  R16,Y+0
001d57 9628      	ADIW R28,8
001d58 90ff      	POP  R15
001d59 9508      	RET
                 ; .FEND
                 
                 	.CSEG
                 _rtc_init:
                 ; .FSTART _rtc_init
001d5a 93aa      	ST   -Y,R26
001d5b 81ea      	LDD  R30,Y+2
001d5c 70e3      	ANDI R30,LOW(0x3)
001d5d 83ea      	STD  Y+2,R30
001d5e 81e9      	LDD  R30,Y+1
001d5f 30e0      	CPI  R30,0
001d60 f019      	BREQ _0x2020003
001d61 81ea      	LDD  R30,Y+2
001d62 61e0      	ORI  R30,0x10
001d63 83ea      	STD  Y+2,R30
                 _0x2020003:
001d64 81e8      	LD   R30,Y
001d65 30e0      	CPI  R30,0
001d66 f019      	BREQ _0x2020004
001d67 81ea      	LDD  R30,Y+2
001d68 68e0      	ORI  R30,0x80
001d69 83ea      	STD  Y+2,R30
                 _0x2020004:
001d6a 940e 2096 	CALL SUBOPT_0x6B
001d6c e0a7      	LDI  R26,LOW(7)
001d6d 940e 20f3 	CALL _i2c_write
001d6f 81aa      	LDD  R26,Y+2
001d70 940e 209b 	CALL SUBOPT_0x6C
                 _0x20A0001:
001d72 9623      	ADIW R28,3
001d73 9508      	RET
                 ; .FEND
                 _rtc_get_time:
                 ; .FSTART _rtc_get_time
001d74 93ba      	ST   -Y,R27
001d75 93aa      	ST   -Y,R26
001d76 940e 2096 	CALL SUBOPT_0x6B
001d78 e0a0      	LDI  R26,LOW(0)
001d79 940e 209b 	CALL SUBOPT_0x6C
001d7b 940e 209f 	CALL SUBOPT_0x6D
001d7d 940e 20a7 	CALL SUBOPT_0x6E
001d7f 940e 20ae 	CALL SUBOPT_0x6F
001d81 940e 20b4 	CALL SUBOPT_0x70
001d83 2fae      	MOV  R26,R30
001d84 940e 1dc1 	CALL _bcd2bin
001d86 81ac      	LDD  R26,Y+4
001d87 81bd      	LDD  R27,Y+4+1
001d88 93ec      	ST   X,R30
001d89 940e 20ce 	CALL _i2c_stop
001d8b 9626      	ADIW R28,6
001d8c 9508      	RET
                 ; .FEND
                 _rtc_get_date:
                 ; .FSTART _rtc_get_date
001d8d 93ba      	ST   -Y,R27
001d8e 93aa      	ST   -Y,R26
001d8f 940e 2096 	CALL SUBOPT_0x6B
001d91 e0a3      	LDI  R26,LOW(3)
001d92 940e 209b 	CALL SUBOPT_0x6C
001d94 940e 209f 	CALL SUBOPT_0x6D
001d96 81ae      	LDD  R26,Y+6
001d97 81bf      	LDD  R27,Y+6+1
001d98 93ec      	ST   X,R30
001d99 940e 20ae 	CALL SUBOPT_0x6F
001d9b 81ac      	LDD  R26,Y+4
001d9c 81bd      	LDD  R27,Y+4+1
001d9d 93ec      	ST   X,R30
001d9e 940e 20ae 	CALL SUBOPT_0x6F
001da0 940e 20b4 	CALL SUBOPT_0x70
001da2 940e 20a7 	CALL SUBOPT_0x6E
001da4 940e 20ce 	CALL _i2c_stop
001da6 9628      	ADIW R28,8
001da7 9508      	RET
                 ; .FEND
                 
                 	.CSEG
                 _strlen:
                 ; .FSTART _strlen
001da8 93ba      	ST   -Y,R27
001da9 93aa      	ST   -Y,R26
001daa 91a9          ld   r26,y+
001dab 91b9          ld   r27,y+
001dac 27ee          clr  r30
001dad 27ff          clr  r31
                 strlen0:
001dae 916d          ld   r22,x+
001daf 2366          tst  r22
001db0 f011          breq strlen1
001db1 9631          adiw r30,1
001db2 cffb          rjmp strlen0
                 strlen1:
001db3 9508          ret
                 ; .FEND
                 _strlenf:
                 ; .FSTART _strlenf
001db4 93ba      	ST   -Y,R27
001db5 93aa      	ST   -Y,R26
001db6 27aa          clr  r26
001db7 27bb          clr  r27
001db8 91e9          ld   r30,y+
001db9 91f9          ld   r31,y+
                 strlenf0:
001dba 9005      	lpm  r0,z+
001dbb 2000          tst  r0
001dbc f011          breq strlenf1
001dbd 9611          adiw r26,1
001dbe cffb          rjmp strlenf0
                 strlenf1:
001dbf 01fd          movw r30,r26
001dc0 9508          ret
                 ; .FEND
                 
                 	.CSEG
                 
                 	.CSEG
                 _bcd2bin:
                 ; .FSTART _bcd2bin
001dc1 93aa      	ST   -Y,R26
001dc2 81e8          ld   r30,y
001dc3 95e2          swap r30
001dc4 70ef          andi r30,0xf
001dc5 2fae          mov  r26,r30
001dc6 0faa          lsl  r26
001dc7 0faa          lsl  r26
001dc8 0fea          add  r30,r26
001dc9 0fee          lsl  r30
001dca 91a9          ld   r26,y+
001dcb 70af          andi r26,0xf
001dcc 0fea          add  r30,r26
001dcd 9508          ret
                 ; .FEND
                 
                 	.DSEG
                 _Relays:
000528           	.BYTE 0x1
                 _Dens:
000529           	.BYTE 0x1
                 _Quats:
00052a           	.BYTE 0x1
                 _Boms:
00052b           	.BYTE 0x1
                 _Sensors:
00052c           	.BYTE 0x1
                 _flagAutoDen:
00052d           	.BYTE 0x1
                 _flagAutoQuat:
00052e           	.BYTE 0x1
                 _flagAutoBom:
00052f           	.BYTE 0x1
                 _rx_buffer:
000530           	.BYTE 0xFA
                 _arrStatuTB:
00062a           	.BYTE 0x19
                 _arrGioOn:
000643           	.BYTE 0x1E
                 _arrPhutOn:
000661           	.BYTE 0x1E
                 _arrGioOff:
00067f           	.BYTE 0x1E
                 _arrPhutOff:
00069d           	.BYTE 0x1E
                 _tx_buffer0:
0006bb           	.BYTE 0x40
                 _tx_counter0:
0006fb           	.BYTE 0x1
                 _s:
0006fc           	.BYTE 0x1
                 _h:
0006fd           	.BYTE 0x1
                 _m:
0006fe           	.BYTE 0x1
                 _thu:
0006ff           	.BYTE 0x1
                 _d:
000700           	.BYTE 0x1
                 _n:
000701           	.BYTE 0x1
                 _y:
000702           	.BYTE 0x1
                 _display_buffer:
000703           	.BYTE 0x14
                 _I_RH:
000717           	.BYTE 0x1
                 _D_RH:
000718           	.BYTE 0x1
                 _I_Temp:
000719           	.BYTE 0x1
                 _D_Temp:
00071a           	.BYTE 0x1
                 _CheckSum:
00071b           	.BYTE 0x1
                 _doam:
00071c           	.BYTE 0x2
                 _temperature:
00071e           	.BYTE 0x1
                 _DoAmDat:
00071f           	.BYTE 0x1
                 _CamBienMua:
000720           	.BYTE 0x1
                 _arrFlagHenGio:
000721           	.BYTE 0x1E
                 _timeSensor:
00073f           	.BYTE 0x2
                 
                 	.CSEG
                 ;OPTIMIZER ADDED SUBROUTINE, CALLED 37 TIMES, CODE SIZE REDUCTION:285 WORDS
                 SUBOPT_0x0:
                +
001dce eaec     +LDI R30 , LOW ( 2 * _0x0 + ( 0 ) )
001dcf e1fe     +LDI R31 , HIGH ( 2 * _0x0 + ( 0 ) )
                 	__POINTW1FN _0x0,0
001dd0 93fa      	ST   -Y,R31
001dd1 93ea      	ST   -Y,R30
                +
001dd2 e0e1     +LDI R30 , LOW ( 0x1 )
001dd3 e0f0     +LDI R31 , HIGH ( 0x1 )
001dd4 e060     +LDI R22 , BYTE3 ( 0x1 )
001dd5 e070     +LDI R23 , BYTE4 ( 0x1 )
                 	__GETD1N 0x1
001dd6 940e 216b 	CALL __PUTPARD1
001dd8 9508      	RET
                 
                 ;OPTIMIZER ADDED SUBROUTINE, CALLED 25 TIMES, CODE SIZE REDUCTION:69 WORDS
                 SUBOPT_0x1:
001dd9 27ff      	CLR  R31
001dda 2766      	CLR  R22
001ddb 2777      	CLR  R23
001ddc 940e 216b 	CALL __PUTPARD1
001dde 9508      	RET
                 
                 ;OPTIMIZER ADDED SUBROUTINE, CALLED 25 TIMES, CODE SIZE REDUCTION:45 WORDS
                 SUBOPT_0x2:
001ddf e08c      	LDI  R24,12
001de0 940e 1d3b 	CALL _printf
001de2 962e      	ADIW R28,14
001de3 9508      	RET
                 
                 ;OPTIMIZER ADDED SUBROUTINE, CALLED 3 TIMES, CODE SIZE REDUCTION:1 WORDS
                 SUBOPT_0x3:
001de4 e0f0      	LDI  R31,0
001de5 30e1      	CPI  R30,LOW(0x1)
001de6 e0a0      	LDI  R26,HIGH(0x1)
001de7 07fa      	CPC  R31,R26
001de8 9508      	RET
                 
                 ;OPTIMIZER ADDED SUBROUTINE, CALLED 2 TIMES, CODE SIZE REDUCTION:3 WORDS
                 SUBOPT_0x4:
001de9 70e1      	ANDI R30,LOW(0x1)
001dea 2e0e      	MOV  R0,R30
001deb 91e0 052c 	LDS  R30,_Sensors
001ded 7fee      	ANDI R30,0xFE
001dee 29e0      	OR   R30,R0
001def 93e0 052c 	STS  _Sensors,R30
001df1 9508      	RET
                 
                 ;OPTIMIZER ADDED SUBROUTINE, CALLED 5 TIMES, CODE SIZE REDUCTION:5 WORDS
                 SUBOPT_0x5:
001df2 81e8      	LD   R30,Y
001df3 70e1      	ANDI R30,LOW(0x1)
001df4 0fee      	LSL  R30
001df5 2e0e      	MOV  R0,R30
001df6 9508      	RET
                 
                 ;OPTIMIZER ADDED SUBROUTINE, CALLED 2 TIMES, CODE SIZE REDUCTION:1 WORDS
                 SUBOPT_0x6:
001df7 91e0 052c 	LDS  R30,_Sensors
001df9 7fed      	ANDI R30,0xFD
001dfa 29e0      	OR   R30,R0
001dfb 93e0 052c 	STS  _Sensors,R30
001dfd 9508      	RET
                 
                 ;OPTIMIZER ADDED SUBROUTINE, CALLED 2 TIMES, CODE SIZE REDUCTION:3 WORDS
                 SUBOPT_0x7:
001dfe 70e1      	ANDI R30,LOW(0x1)
001dff 2e0e      	MOV  R0,R30
001e00 91e0 0529 	LDS  R30,_Dens
001e02 7fee      	ANDI R30,0xFE
001e03 29e0      	OR   R30,R0
001e04 93e0 0529 	STS  _Dens,R30
001e06 9508      	RET
                 
                 ;OPTIMIZER ADDED SUBROUTINE, CALLED 2 TIMES, CODE SIZE REDUCTION:1 WORDS
                 SUBOPT_0x8:
001e07 91e0 0529 	LDS  R30,_Dens
001e09 7fed      	ANDI R30,0xFD
001e0a 29e0      	OR   R30,R0
001e0b 93e0 0529 	STS  _Dens,R30
001e0d 9508      	RET
                 
                 ;OPTIMIZER ADDED SUBROUTINE, CALLED 4 TIMES, CODE SIZE REDUCTION:6 WORDS
                 SUBOPT_0x9:
001e0e 81e8      	LD   R30,Y
001e0f 70e1      	ANDI R30,LOW(0x1)
001e10 0fee      	LSL  R30
001e11 0fee      	LSL  R30
001e12 2e0e      	MOV  R0,R30
001e13 9508      	RET
                 
                 ;OPTIMIZER ADDED SUBROUTINE, CALLED 2 TIMES, CODE SIZE REDUCTION:1 WORDS
                 SUBOPT_0xA:
001e14 91e0 0529 	LDS  R30,_Dens
001e16 7feb      	ANDI R30,0xFB
001e17 29e0      	OR   R30,R0
001e18 93e0 0529 	STS  _Dens,R30
001e1a 9508      	RET
                 
                 ;OPTIMIZER ADDED SUBROUTINE, CALLED 2 TIMES, CODE SIZE REDUCTION:3 WORDS
                 SUBOPT_0xB:
001e1b 70e1      	ANDI R30,LOW(0x1)
001e1c 2e0e      	MOV  R0,R30
001e1d 91e0 052a 	LDS  R30,_Quats
001e1f 7fee      	ANDI R30,0xFE
001e20 29e0      	OR   R30,R0
001e21 93e0 052a 	STS  _Quats,R30
001e23 9508      	RET
                 
                 ;OPTIMIZER ADDED SUBROUTINE, CALLED 2 TIMES, CODE SIZE REDUCTION:1 WORDS
                 SUBOPT_0xC:
001e24 91e0 052a 	LDS  R30,_Quats
001e26 7fed      	ANDI R30,0xFD
001e27 29e0      	OR   R30,R0
001e28 93e0 052a 	STS  _Quats,R30
001e2a 9508      	RET
                 
                 ;OPTIMIZER ADDED SUBROUTINE, CALLED 2 TIMES, CODE SIZE REDUCTION:1 WORDS
                 SUBOPT_0xD:
001e2b 91e0 052a 	LDS  R30,_Quats
001e2d 7feb      	ANDI R30,0xFB
001e2e 29e0      	OR   R30,R0
001e2f 93e0 052a 	STS  _Quats,R30
001e31 9508      	RET
                 
                 ;OPTIMIZER ADDED SUBROUTINE, CALLED 2 TIMES, CODE SIZE REDUCTION:3 WORDS
                 SUBOPT_0xE:
001e32 70e1      	ANDI R30,LOW(0x1)
001e33 2e0e      	MOV  R0,R30
001e34 91e0 052b 	LDS  R30,_Boms
001e36 7fee      	ANDI R30,0xFE
001e37 29e0      	OR   R30,R0
001e38 93e0 052b 	STS  _Boms,R30
001e3a 9508      	RET
                 
                 ;OPTIMIZER ADDED SUBROUTINE, CALLED 2 TIMES, CODE SIZE REDUCTION:1 WORDS
                 SUBOPT_0xF:
001e3b 91e0 052b 	LDS  R30,_Boms
001e3d 7fed      	ANDI R30,0xFD
001e3e 29e0      	OR   R30,R0
001e3f 93e0 052b 	STS  _Boms,R30
001e41 9508      	RET
                 
                 ;OPTIMIZER ADDED SUBROUTINE, CALLED 2 TIMES, CODE SIZE REDUCTION:1 WORDS
                 SUBOPT_0x10:
001e42 91e0 052b 	LDS  R30,_Boms
001e44 7feb      	ANDI R30,0xFB
001e45 29e0      	OR   R30,R0
001e46 93e0 052b 	STS  _Boms,R30
001e48 9508      	RET
                 
                 ;OPTIMIZER ADDED SUBROUTINE, CALLED 3 TIMES, CODE SIZE REDUCTION:3 WORDS
                 SUBOPT_0x11:
001e49 70e1      	ANDI R30,LOW(0x1)
001e4a 0fee      	LSL  R30
001e4b 0fee      	LSL  R30
001e4c 0fee      	LSL  R30
001e4d 2e0e      	MOV  R0,R30
001e4e 9508      	RET
                 
                 ;OPTIMIZER ADDED SUBROUTINE, CALLED 2 TIMES, CODE SIZE REDUCTION:2 WORDS
                 SUBOPT_0x12:
001e4f 70e1      	ANDI R30,LOW(0x1)
001e50 95e2      	SWAP R30
001e51 7fe0      	ANDI R30,0xF0
001e52 2e0e      	MOV  R0,R30
001e53 91e0 0528 	LDS  R30,_Relays
001e55 7eef      	ANDI R30,0xEF
001e56 9508      	RET
                 
                 ;OPTIMIZER ADDED SUBROUTINE, CALLED 2 TIMES, CODE SIZE REDUCTION:3 WORDS
                 SUBOPT_0x13:
001e57 70e1      	ANDI R30,LOW(0x1)
001e58 95e2      	SWAP R30
001e59 7fe0      	ANDI R30,0xF0
001e5a 0fee      	LSL  R30
001e5b 2e0e      	MOV  R0,R30
001e5c 91e0 0528 	LDS  R30,_Relays
001e5e 7def      	ANDI R30,0xDF
001e5f 9508      	RET
                 
                 ;OPTIMIZER ADDED SUBROUTINE, CALLED 2 TIMES, CODE SIZE REDUCTION:4 WORDS
                 SUBOPT_0x14:
001e60 70e1      	ANDI R30,LOW(0x1)
001e61 95e2      	SWAP R30
001e62 7fe0      	ANDI R30,0xF0
001e63 0fee      	LSL  R30
001e64 0fee      	LSL  R30
001e65 2e0e      	MOV  R0,R30
001e66 91e0 0528 	LDS  R30,_Relays
001e68 7bef      	ANDI R30,0xBF
001e69 9508      	RET
                 
                 ;OPTIMIZER ADDED SUBROUTINE, CALLED 2 TIMES, CODE SIZE REDUCTION:3 WORDS
                 SUBOPT_0x15:
001e6a 70e1      	ANDI R30,LOW(0x1)
001e6b 95e7      	ROR  R30
001e6c e0e0      	LDI  R30,0
001e6d 95e7      	ROR  R30
001e6e 2e0e      	MOV  R0,R30
001e6f 91e0 0528 	LDS  R30,_Relays
001e71 77ef      	ANDI R30,0x7F
001e72 9508      	RET
                 
                 ;OPTIMIZER ADDED SUBROUTINE, CALLED 8 TIMES, CODE SIZE REDUCTION:11 WORDS
                 SUBOPT_0x16:
001e73 91e0 0529 	LDS  R30,_Dens
001e75 93e0 1101 	STS  4353,R30
001e77 9508      	RET
                 
                 ;OPTIMIZER ADDED SUBROUTINE, CALLED 8 TIMES, CODE SIZE REDUCTION:11 WORDS
                 SUBOPT_0x17:
001e78 91e0 052a 	LDS  R30,_Quats
001e7a 93e0 1102 	STS  4354,R30
001e7c 9508      	RET
                 
                 ;OPTIMIZER ADDED SUBROUTINE, CALLED 8 TIMES, CODE SIZE REDUCTION:11 WORDS
                 SUBOPT_0x18:
001e7d 91e0 052b 	LDS  R30,_Boms
001e7f 93e0 1103 	STS  4355,R30
001e81 9508      	RET
                 
                 ;OPTIMIZER ADDED SUBROUTINE, CALLED 6 TIMES, CODE SIZE REDUCTION:7 WORDS
                 SUBOPT_0x19:
001e82 91e0 052c 	LDS  R30,_Sensors
001e84 93e0 1104 	STS  4356,R30
001e86 9508      	RET
                 
                 ;OPTIMIZER ADDED SUBROUTINE, CALLED 3 TIMES, CODE SIZE REDUCTION:5 WORDS
                 SUBOPT_0x1A:
                +
001e87 e0e5     +LDI R30 , LOW ( 0x5 )
001e88 e0f0     +LDI R31 , HIGH ( 0x5 )
001e89 e060     +LDI R22 , BYTE3 ( 0x5 )
001e8a e070     +LDI R23 , BYTE4 ( 0x5 )
                 	__GETD1N 0x5
001e8b 940e 216b 	CALL __PUTPARD1
001e8d 9508      	RET
                 
                 ;OPTIMIZER ADDED SUBROUTINE, CALLED 2 TIMES, CODE SIZE REDUCTION:3 WORDS
                 SUBOPT_0x1B:
001e8e e084      	LDI  R24,4
001e8f 940e 1d3b 	CALL _printf
001e91 9626      	ADIW R28,6
001e92 9894      	CBI  0x12,4
001e93 b7e7      	IN   R30,0x37
001e94 7feb      	ANDI R30,0xFB
001e95 bfe7      	OUT  0x37,R30
001e96 9508      	RET
                 
                 ;OPTIMIZER ADDED SUBROUTINE, CALLED 3 TIMES, CODE SIZE REDUCTION:5 WORDS
                 SUBOPT_0x1C:
                +
001e97 e0e6     +LDI R30 , LOW ( 0x6 )
001e98 e0f0     +LDI R31 , HIGH ( 0x6 )
001e99 e060     +LDI R22 , BYTE3 ( 0x6 )
001e9a e070     +LDI R23 , BYTE4 ( 0x6 )
                 	__GETD1N 0x6
001e9b 940e 216b 	CALL __PUTPARD1
001e9d 9508      	RET
                 
                 ;OPTIMIZER ADDED SUBROUTINE, CALLED 3 TIMES, CODE SIZE REDUCTION:5 WORDS
                 SUBOPT_0x1D:
                +
001e9e e0e4     +LDI R30 , LOW ( 0x4 )
001e9f e0f0     +LDI R31 , HIGH ( 0x4 )
001ea0 e060     +LDI R22 , BYTE3 ( 0x4 )
001ea1 e070     +LDI R23 , BYTE4 ( 0x4 )
                 	__GETD1N 0x4
001ea2 940e 216b 	CALL __PUTPARD1
001ea4 9508      	RET
                 
                 ;OPTIMIZER ADDED SUBROUTINE, CALLED 12 TIMES, CODE SIZE REDUCTION:63 WORDS
                 SUBOPT_0x1E:
                +
001ea5 e0e1     +LDI R30 , LOW ( 0x1 )
001ea6 e0f0     +LDI R31 , HIGH ( 0x1 )
001ea7 e060     +LDI R22 , BYTE3 ( 0x1 )
001ea8 e070     +LDI R23 , BYTE4 ( 0x1 )
                 	__GETD1N 0x1
001ea9 940e 216b 	CALL __PUTPARD1
001eab cf33      	RJMP SUBOPT_0x2
                 
                 ;OPTIMIZER ADDED SUBROUTINE, CALLED 6 TIMES, CODE SIZE REDUCTION:7 WORDS
                 SUBOPT_0x1F:
                +
001eac edec     +LDI R30 , LOW ( 2 * _0x0 + ( 48 ) )
001ead e1fe     +LDI R31 , HIGH ( 2 * _0x0 + ( 48 ) )
                 	__POINTW1FN _0x0,48
001eae 93fa      	ST   -Y,R31
001eaf 93ea      	ST   -Y,R30
001eb0 9508      	RET
                 
                 ;OPTIMIZER ADDED SUBROUTINE, CALLED 6 TIMES, CODE SIZE REDUCTION:7 WORDS
                 SUBOPT_0x20:
                +
001eb1 e0e7     +LDI R30 , LOW ( 0x7 )
001eb2 e0f0     +LDI R31 , HIGH ( 0x7 )
001eb3 e060     +LDI R22 , BYTE3 ( 0x7 )
001eb4 e070     +LDI R23 , BYTE4 ( 0x7 )
                 	__GETD1N 0x7
001eb5 9508      	RET
                 
                 ;OPTIMIZER ADDED SUBROUTINE, CALLED 6 TIMES, CODE SIZE REDUCTION:7 WORDS
                 SUBOPT_0x21:
001eb6 940e 216b 	CALL __PUTPARD1
001eb8 cfec      	RJMP SUBOPT_0x1E
                 
                 ;OPTIMIZER ADDED SUBROUTINE, CALLED 6 TIMES, CODE SIZE REDUCTION:7 WORDS
                 SUBOPT_0x22:
                +
001eb9 e0e8     +LDI R30 , LOW ( 0x8 )
001eba e0f0     +LDI R31 , HIGH ( 0x8 )
001ebb e060     +LDI R22 , BYTE3 ( 0x8 )
001ebc e070     +LDI R23 , BYTE4 ( 0x8 )
                 	__GETD1N 0x8
001ebd 9508      	RET
                 
                 ;OPTIMIZER ADDED SUBROUTINE, CALLED 6 TIMES, CODE SIZE REDUCTION:7 WORDS
                 SUBOPT_0x23:
                +
001ebe e0e9     +LDI R30 , LOW ( 0x9 )
001ebf e0f0     +LDI R31 , HIGH ( 0x9 )
001ec0 e060     +LDI R22 , BYTE3 ( 0x9 )
001ec1 e070     +LDI R23 , BYTE4 ( 0x9 )
                 	__GETD1N 0x9
001ec2 9508      	RET
                 
                 ;OPTIMIZER ADDED SUBROUTINE, CALLED 4 TIMES, CODE SIZE REDUCTION:3 WORDS
                 SUBOPT_0x24:
                +
001ec3 e0ea     +LDI R30 , LOW ( 0xA )
001ec4 e0f0     +LDI R31 , HIGH ( 0xA )
001ec5 e060     +LDI R22 , BYTE3 ( 0xA )
001ec6 e070     +LDI R23 , BYTE4 ( 0xA )
                 	__GETD1N 0xA
001ec7 9508      	RET
                 
                 ;OPTIMIZER ADDED SUBROUTINE, CALLED 4 TIMES, CODE SIZE REDUCTION:3 WORDS
                 SUBOPT_0x25:
                +
001ec8 e0eb     +LDI R30 , LOW ( 0xB )
001ec9 e0f0     +LDI R31 , HIGH ( 0xB )
001eca e060     +LDI R22 , BYTE3 ( 0xB )
001ecb e070     +LDI R23 , BYTE4 ( 0xB )
                 	__GETD1N 0xB
001ecc 9508      	RET
                 
                 ;OPTIMIZER ADDED SUBROUTINE, CALLED 4 TIMES, CODE SIZE REDUCTION:3 WORDS
                 SUBOPT_0x26:
                +
001ecd e0ec     +LDI R30 , LOW ( 0xC )
001ece e0f0     +LDI R31 , HIGH ( 0xC )
001ecf e060     +LDI R22 , BYTE3 ( 0xC )
001ed0 e070     +LDI R23 , BYTE4 ( 0xC )
                 	__GETD1N 0xC
001ed1 9508      	RET
                 
                 ;OPTIMIZER ADDED SUBROUTINE, CALLED 2 TIMES, CODE SIZE REDUCTION:1 WORDS
                 SUBOPT_0x27:
001ed2 940e 216b 	CALL __PUTPARD1
001ed4 e088      	LDI  R24,8
001ed5 940e 1d3b 	CALL _printf
001ed7 962a      	ADIW R28,10
001ed8 9508      	RET
                 
                 ;OPTIMIZER ADDED SUBROUTINE, CALLED 12 TIMES, CODE SIZE REDUCTION:63 WORDS
                 SUBOPT_0x28:
                +
001ed9 e0e0     +LDI R30 , LOW ( 0x0 )
001eda e0f0     +LDI R31 , HIGH ( 0x0 )
001edb e060     +LDI R22 , BYTE3 ( 0x0 )
001edc e070     +LDI R23 , BYTE4 ( 0x0 )
                 	__GETD1N 0x0
001edd 940e 216b 	CALL __PUTPARD1
001edf ceff      	RJMP SUBOPT_0x2
                 
                 ;OPTIMIZER ADDED SUBROUTINE, CALLED 6 TIMES, CODE SIZE REDUCTION:7 WORDS
                 SUBOPT_0x29:
001ee0 940e 216b 	CALL __PUTPARD1
001ee2 cff6      	RJMP SUBOPT_0x28
                 
                 ;OPTIMIZER ADDED SUBROUTINE, CALLED 5 TIMES, CODE SIZE REDUCTION:9 WORDS
                 SUBOPT_0x2A:
001ee3 53e0      	SUBI R30,LOW(48)
001ee4 e0aa      	LDI  R26,LOW(10)
001ee5 02ea      	MULS R30,R26
001ee6 01f0      	MOVW R30,R0
001ee7 2fae      	MOV  R26,R30
001ee8 9508      	RET
                 
                 ;OPTIMIZER ADDED SUBROUTINE, CALLED 5 TIMES, CODE SIZE REDUCTION:5 WORDS
                 SUBOPT_0x2B:
001ee9 2de6      	MOV  R30,R6
001eea 70e1      	ANDI R30,LOW(0x1)
001eeb 0fee      	LSL  R30
001eec 2e0e      	MOV  R0,R30
001eed 9508      	RET
                 
                 ;OPTIMIZER ADDED SUBROUTINE, CALLED 5 TIMES, CODE SIZE REDUCTION:9 WORDS
                 SUBOPT_0x2C:
001eee 2de6      	MOV  R30,R6
001eef 70e1      	ANDI R30,LOW(0x1)
001ef0 0fee      	LSL  R30
001ef1 0fee      	LSL  R30
001ef2 2e0e      	MOV  R0,R30
001ef3 9508      	RET
                 
                 ;OPTIMIZER ADDED SUBROUTINE, CALLED 3 TIMES, CODE SIZE REDUCTION:1 WORDS
                 SUBOPT_0x2D:
001ef4 93e0 052c 	STS  _Sensors,R30
001ef6 cf8b      	RJMP SUBOPT_0x19
                 
                 ;OPTIMIZER ADDED SUBROUTINE, CALLED 3 TIMES, CODE SIZE REDUCTION:1 WORDS
                 SUBOPT_0x2E:
001ef7 e4a6      	LDI  R26,LOW(70)
001ef8 83a0      	STD  Z+0,R26
001ef9 2de7      	MOV  R30,R7
001efa e0f0      	LDI  R31,0
001efb 9508      	RET
                 
                 ;OPTIMIZER ADDED SUBROUTINE, CALLED 3 TIMES, CODE SIZE REDUCTION:1 WORDS
                 SUBOPT_0x2F:
                +
001efc 91e0 0531+LDS R30 , _rx_buffer + ( 1 )
                 	__GETB1MN _rx_buffer,1
001efe 53e0      	SUBI R30,LOW(48)
001eff 2e6e      	MOV  R6,R30
001f00 9508      	RET
                 
                 ;OPTIMIZER ADDED SUBROUTINE, CALLED 4 TIMES, CODE SIZE REDUCTION:6 WORDS
                 SUBOPT_0x30:
001f01 91ed      	LD   R30,X+
001f02 91fd      	LD   R31,X+
001f03 9631      	ADIW R30,1
001f04 93fe      	ST   -X,R31
001f05 93ee      	ST   -X,R30
001f06 9508      	RET
                 
                 ;OPTIMIZER ADDED SUBROUTINE, CALLED 2 TIMES, CODE SIZE REDUCTION:1 WORDS
                 SUBOPT_0x31:
001f07 019f      	MOVW R18,R30
001f08 933a      	ST   -Y,R19
001f09 932a      	ST   -Y,R18
001f0a 2fa1      	MOV  R26,R17
001f0b 940c 16d9 	JMP  _MenuDisplay
                 
                 ;OPTIMIZER ADDED SUBROUTINE, CALLED 2 TIMES, CODE SIZE REDUCTION:1 WORDS
                 SUBOPT_0x32:
001f0d 2f1e      	MOV  R17,R30
001f0e 933a      	ST   -Y,R19
001f0f 932a      	ST   -Y,R18
001f10 2fa1      	MOV  R26,R17
001f11 940c 16d9 	JMP  _MenuDisplay
                 
                 ;OPTIMIZER ADDED SUBROUTINE, CALLED 3 TIMES, CODE SIZE REDUCTION:3 WORDS
                 SUBOPT_0x33:
001f13 5ae5      	SUBI R30,LOW(-91)
001f14 4fff      	SBCI R31,HIGH(-91)
001f15 940e 2168 	CALL __GETW2PF
001f17 9710      	SBIW R26,0
001f18 9508      	RET
                 
                 ;OPTIMIZER ADDED SUBROUTINE, CALLED 6 TIMES, CODE SIZE REDUCTION:12 WORDS
                 SUBOPT_0x34:
001f19 933a      	ST   -Y,R19
001f1a 932a      	ST   -Y,R18
001f1b 2fa1      	MOV  R26,R17
001f1c 940c 16d9 	JMP  _MenuDisplay
                 
                 ;OPTIMIZER ADDED SUBROUTINE, CALLED 3 TIMES, CODE SIZE REDUCTION:1 WORDS
                 SUBOPT_0x35:
001f1e 91e4      	LPM  R30,Z
001f1f e0f0      	LDI  R31,0
001f20 5de6      	SUBI R30,LOW(-_arrStatuTB)
001f21 4ff9      	SBCI R31,HIGH(-_arrStatuTB)
001f22 9508      	RET
                 
                 ;OPTIMIZER ADDED SUBROUTINE, CALLED 3 TIMES, CODE SIZE REDUCTION:5 WORDS
                 SUBOPT_0x36:
001f23 01f9      	MOVW R30,R18
001f24 5ae3      	SUBI R30,LOW(-93)
001f25 4fff      	SBCI R31,HIGH(-93)
001f26 940e 2164 	CALL __GETW1PF
001f28 9730      	SBIW R30,0
001f29 9508      	RET
                 
                 ;OPTIMIZER ADDED SUBROUTINE, CALLED 2 TIMES, CODE SIZE REDUCTION:6 WORDS
                 SUBOPT_0x37:
001f2a e9a6      	LDI  R26,LOW(150)
001f2b e0b0      	LDI  R27,0
001f2c 940e 210b 	CALL _delay_ms
001f2e 01f9      	MOVW R30,R18
001f2f 91e4      	LPM  R30,Z
001f30 e0f0      	LDI  R31,0
001f31 5bed      	SUBI R30,LOW(-_arrGioOn)
001f32 4ff9      	SBCI R31,HIGH(-_arrGioOn)
001f33 01df      	MOVW R26,R30
001f34 91ec      	LD   R30,X
001f35 9508      	RET
                 
                 ;OPTIMIZER ADDED SUBROUTINE, CALLED 4 TIMES, CODE SIZE REDUCTION:6 WORDS
                 SUBOPT_0x38:
001f36 5fef      	SUBI R30,-LOW(1)
001f37 93ec      	ST   X,R30
001f38 01f9      	MOVW R30,R18
001f39 91e4      	LPM  R30,Z
001f3a e0f0      	LDI  R31,0
001f3b 9508      	RET
                 
                 ;OPTIMIZER ADDED SUBROUTINE, CALLED 4 TIMES, CODE SIZE REDUCTION:6 WORDS
                 SUBOPT_0x39:
001f3c 01f9      	MOVW R30,R18
001f3d 91e4      	LPM  R30,Z
001f3e e0f0      	LDI  R31,0
001f3f 5bed      	SUBI R30,LOW(-_arrGioOn)
001f40 4ff9      	SBCI R31,HIGH(-_arrGioOn)
001f41 9508      	RET
                 
                 ;OPTIMIZER ADDED SUBROUTINE, CALLED 4 TIMES, CODE SIZE REDUCTION:3 WORDS
                 SUBOPT_0x3A:
001f42 e0e0      	LDI  R30,LOW(0)
001f43 83e9      	STD  Y+1,R30
001f44 efef      	LDI  R30,LOW(255)
001f45 83e8      	ST   Y,R30
001f46 9508      	RET
                 
                 ;OPTIMIZER ADDED SUBROUTINE, CALLED 2 TIMES, CODE SIZE REDUCTION:6 WORDS
                 SUBOPT_0x3B:
001f47 e9a6      	LDI  R26,LOW(150)
001f48 e0b0      	LDI  R27,0
001f49 940e 210b 	CALL _delay_ms
001f4b 01f9      	MOVW R30,R18
001f4c 91e4      	LPM  R30,Z
001f4d e0f0      	LDI  R31,0
001f4e 59ef      	SUBI R30,LOW(-_arrPhutOn)
001f4f 4ff9      	SBCI R31,HIGH(-_arrPhutOn)
001f50 01df      	MOVW R26,R30
001f51 91ec      	LD   R30,X
001f52 9508      	RET
                 
                 ;OPTIMIZER ADDED SUBROUTINE, CALLED 4 TIMES, CODE SIZE REDUCTION:6 WORDS
                 SUBOPT_0x3C:
001f53 01f9      	MOVW R30,R18
001f54 91e4      	LPM  R30,Z
001f55 e0f0      	LDI  R31,0
001f56 59ef      	SUBI R30,LOW(-_arrPhutOn)
001f57 4ff9      	SBCI R31,HIGH(-_arrPhutOn)
001f58 9508      	RET
                 
                 ;OPTIMIZER ADDED SUBROUTINE, CALLED 2 TIMES, CODE SIZE REDUCTION:1 WORDS
                 SUBOPT_0x3D:
001f59 940e 216b 	CALL __PUTPARD1
001f5b 01f9      	MOVW R30,R18
001f5c 91e4      	LPM  R30,Z
001f5d ce7b      	RJMP SUBOPT_0x1
                 
                 ;OPTIMIZER ADDED SUBROUTINE, CALLED 2 TIMES, CODE SIZE REDUCTION:6 WORDS
                 SUBOPT_0x3E:
001f5e e9a6      	LDI  R26,LOW(150)
001f5f e0b0      	LDI  R27,0
001f60 940e 210b 	CALL _delay_ms
001f62 01f9      	MOVW R30,R18
001f63 91e4      	LPM  R30,Z
001f64 e0f0      	LDI  R31,0
001f65 58e1      	SUBI R30,LOW(-_arrGioOff)
001f66 4ff9      	SBCI R31,HIGH(-_arrGioOff)
001f67 01df      	MOVW R26,R30
001f68 91ec      	LD   R30,X
001f69 9508      	RET
                 
                 ;OPTIMIZER ADDED SUBROUTINE, CALLED 4 TIMES, CODE SIZE REDUCTION:6 WORDS
                 SUBOPT_0x3F:
001f6a 01f9      	MOVW R30,R18
001f6b 91e4      	LPM  R30,Z
001f6c e0f0      	LDI  R31,0
001f6d 58e1      	SUBI R30,LOW(-_arrGioOff)
001f6e 4ff9      	SBCI R31,HIGH(-_arrGioOff)
001f6f 9508      	RET
                 
                 ;OPTIMIZER ADDED SUBROUTINE, CALLED 2 TIMES, CODE SIZE REDUCTION:6 WORDS
                 SUBOPT_0x40:
001f70 e9a6      	LDI  R26,LOW(150)
001f71 e0b0      	LDI  R27,0
001f72 940e 210b 	CALL _delay_ms
001f74 01f9      	MOVW R30,R18
001f75 91e4      	LPM  R30,Z
001f76 e0f0      	LDI  R31,0
001f77 56e3      	SUBI R30,LOW(-_arrPhutOff)
001f78 4ff9      	SBCI R31,HIGH(-_arrPhutOff)
001f79 01df      	MOVW R26,R30
001f7a 91ec      	LD   R30,X
001f7b 9508      	RET
                 
                 ;OPTIMIZER ADDED SUBROUTINE, CALLED 4 TIMES, CODE SIZE REDUCTION:6 WORDS
                 SUBOPT_0x41:
001f7c 01f9      	MOVW R30,R18
001f7d 91e4      	LPM  R30,Z
001f7e e0f0      	LDI  R31,0
001f7f 56e3      	SUBI R30,LOW(-_arrPhutOff)
001f80 4ff9      	SBCI R31,HIGH(-_arrPhutOff)
001f81 9508      	RET
                 
                 ;OPTIMIZER ADDED SUBROUTINE, CALLED 3 TIMES, CODE SIZE REDUCTION:1 WORDS
                 SUBOPT_0x42:
001f82 93e0 052c 	STS  _Sensors,R30
001f84 9508      	RET
                 
                 ;OPTIMIZER ADDED SUBROUTINE, CALLED 2 TIMES, CODE SIZE REDUCTION:1 WORDS
                 SUBOPT_0x43:
001f85 93ea      	ST   -Y,R30
001f86 e0a0      	LDI  R26,LOW(0)
001f87 940e 1b41 	CALL _PrintFlash
001f89 81e9      	LDD  R30,Y+1
001f8a 81fa      	LDD  R31,Y+1+1
001f8b 9508      	RET
                 
                 ;OPTIMIZER ADDED SUBROUTINE, CALLED 13 TIMES, CODE SIZE REDUCTION:21 WORDS
                 SUBOPT_0x44:
001f8c e0e3      	LDI  R30,LOW(_display_buffer)
001f8d e0f7      	LDI  R31,HIGH(_display_buffer)
001f8e 93fa      	ST   -Y,R31
001f8f 93ea      	ST   -Y,R30
001f90 9508      	RET
                 
                 ;OPTIMIZER ADDED SUBROUTINE, CALLED 2 TIMES, CODE SIZE REDUCTION:1 WORDS
                 SUBOPT_0x45:
001f91 93fa      	ST   -Y,R31
001f92 93ea      	ST   -Y,R30
001f93 81ed      	LDD  R30,Y+5
001f94 81fe      	LDD  R31,Y+5+1
001f95 91e4      	LPM  R30,Z
001f96 e0f0      	LDI  R31,0
001f97 9508      	RET
                 
                 ;OPTIMIZER ADDED SUBROUTINE, CALLED 20 TIMES, CODE SIZE REDUCTION:35 WORDS
                 SUBOPT_0x46:
001f98 e0f0      	LDI  R31,0
001f99 59ef      	SUBI R30,LOW(-_arrPhutOn)
001f9a 4ff9      	SBCI R31,HIGH(-_arrPhutOn)
001f9b 81e0      	LD   R30,Z
001f9c 9508      	RET
                 
                 ;OPTIMIZER ADDED SUBROUTINE, CALLED 2 TIMES, CODE SIZE REDUCTION:1 WORDS
                 SUBOPT_0x47:
001f9d e088      	LDI  R24,8
001f9e 940e 1d0d 	CALL _sprintf
001fa0 962c      	ADIW R28,12
001fa1 cfea      	RJMP SUBOPT_0x44
                 
                 ;OPTIMIZER ADDED SUBROUTINE, CALLED 2 TIMES, CODE SIZE REDUCTION:2 WORDS
                 SUBOPT_0x48:
001fa2 e0e1      	LDI  R30,LOW(1)
001fa3 93ea      	ST   -Y,R30
001fa4 e0a0      	LDI  R26,LOW(0)
001fa5 940e 1b6d 	CALL _Print
001fa7 cfe4      	RJMP SUBOPT_0x44
                 
                 ;OPTIMIZER ADDED SUBROUTINE, CALLED 20 TIMES, CODE SIZE REDUCTION:35 WORDS
                 SUBOPT_0x49:
001fa8 e0f0      	LDI  R31,0
001fa9 56e3      	SUBI R30,LOW(-_arrPhutOff)
001faa 4ff9      	SBCI R31,HIGH(-_arrPhutOff)
001fab 81e0      	LD   R30,Z
001fac 9508      	RET
                 
                 ;OPTIMIZER ADDED SUBROUTINE, CALLED 5 TIMES, CODE SIZE REDUCTION:5 WORDS
                 SUBOPT_0x4A:
001fad 93ea      	ST   -Y,R30
001fae e0a0      	LDI  R26,LOW(0)
001faf 940c 1b6d 	JMP  _Print
                 
                 ;OPTIMIZER ADDED SUBROUTINE, CALLED 3 TIMES, CODE SIZE REDUCTION:1 WORDS
                 SUBOPT_0x4B:
001fb1 93ea      	ST   -Y,R30
001fb2 e0a0      	LDI  R26,LOW(0)
001fb3 940c 1b41 	JMP  _PrintFlash
                 
                 ;OPTIMIZER ADDED SUBROUTINE, CALLED 4 TIMES, CODE SIZE REDUCTION:3 WORDS
                 SUBOPT_0x4C:
001fb5 940e 211d 	CALL __CWD1
001fb7 940e 216b 	CALL __PUTPARD1
001fb9 9508      	RET
                 
                 ;OPTIMIZER ADDED SUBROUTINE, CALLED 2 TIMES, CODE SIZE REDUCTION:1 WORDS
                 SUBOPT_0x4D:
001fba e180      	LDI  R24,16
001fbb 940e 1d0d 	CALL _sprintf
001fbd 9664      	ADIW R28,20
001fbe cfcd      	RJMP SUBOPT_0x44
                 
                 ;OPTIMIZER ADDED SUBROUTINE, CALLED 20 TIMES, CODE SIZE REDUCTION:35 WORDS
                 SUBOPT_0x4E:
001fbf 2fe1      	MOV  R30,R17
001fc0 e0f0      	LDI  R31,0
001fc1 5bed      	SUBI R30,LOW(-_arrGioOn)
001fc2 4ff9      	SBCI R31,HIGH(-_arrGioOn)
001fc3 9508      	RET
                 
                 ;OPTIMIZER ADDED SUBROUTINE, CALLED 4 TIMES, CODE SIZE REDUCTION:3 WORDS
                 SUBOPT_0x4F:
001fc4 e4a6      	LDI  R26,LOW(70)
001fc5 83a0      	STD  Z+0,R26
001fc6 2fe1      	MOV  R30,R17
001fc7 e0f0      	LDI  R31,0
001fc8 9508      	RET
                 
                 ;OPTIMIZER ADDED SUBROUTINE, CALLED 4 TIMES, CODE SIZE REDUCTION:3 WORDS
                 SUBOPT_0x50:
001fc9 5def      	SUBI R30,LOW(-_arrFlagHenGio)
001fca 4ff8      	SBCI R31,HIGH(-_arrFlagHenGio)
001fcb e0a0      	LDI  R26,LOW(0)
001fcc 83a0      	STD  Z+0,R26
001fcd 9508      	RET
                 
                 ;OPTIMIZER ADDED SUBROUTINE, CALLED 3 TIMES, CODE SIZE REDUCTION:3 WORDS
                 SUBOPT_0x51:
001fce 93aa      	ST   -Y,R26
001fcf 81ed      	LDD  R30,Y+5
001fd0 91a0 06fd 	LDS  R26,_h
001fd2 17ea      	CP   R30,R26
001fd3 9508      	RET
                 
                 ;OPTIMIZER ADDED SUBROUTINE, CALLED 3 TIMES, CODE SIZE REDUCTION:1 WORDS
                 SUBOPT_0x52:
001fd4 81ec      	LDD  R30,Y+4
001fd5 91a0 06fe 	LDS  R26,_m
001fd7 17ea      	CP   R30,R26
001fd8 9508      	RET
                 
                 ;OPTIMIZER ADDED SUBROUTINE, CALLED 6 TIMES, CODE SIZE REDUCTION:7 WORDS
                 SUBOPT_0x53:
001fd9 93e0 0529 	STS  _Dens,R30
001fdb cdf2      	RJMP SUBOPT_0x0
                 
                 ;OPTIMIZER ADDED SUBROUTINE, CALLED 3 TIMES, CODE SIZE REDUCTION:5 WORDS
                 SUBOPT_0x54:
001fdc 81e8      	LD   R30,Y
001fdd e0f0      	LDI  R31,0
001fde 5def      	SUBI R30,LOW(-_arrFlagHenGio)
001fdf 4ff8      	SBCI R31,HIGH(-_arrFlagHenGio)
001fe0 e0a1      	LDI  R26,LOW(1)
001fe1 83a0      	STD  Z+0,R26
001fe2 9508      	RET
                 
                 ;OPTIMIZER ADDED SUBROUTINE, CALLED 3 TIMES, CODE SIZE REDUCTION:1 WORDS
                 SUBOPT_0x55:
001fe3 81eb      	LDD  R30,Y+3
001fe4 91a0 06fd 	LDS  R26,_h
001fe6 17ea      	CP   R30,R26
001fe7 9508      	RET
                 
                 ;OPTIMIZER ADDED SUBROUTINE, CALLED 3 TIMES, CODE SIZE REDUCTION:1 WORDS
                 SUBOPT_0x56:
001fe8 81ea      	LDD  R30,Y+2
001fe9 91a0 06fe 	LDS  R26,_m
001feb 17ea      	CP   R30,R26
001fec 9508      	RET
                 
                 ;OPTIMIZER ADDED SUBROUTINE, CALLED 3 TIMES, CODE SIZE REDUCTION:1 WORDS
                 SUBOPT_0x57:
001fed 81e8      	LD   R30,Y
001fee e0f0      	LDI  R31,0
001fef cfd9      	RJMP SUBOPT_0x50
                 
                 ;OPTIMIZER ADDED SUBROUTINE, CALLED 6 TIMES, CODE SIZE REDUCTION:7 WORDS
                 SUBOPT_0x58:
001ff0 93e0 052a 	STS  _Quats,R30
001ff2 cddb      	RJMP SUBOPT_0x0
                 
                 ;OPTIMIZER ADDED SUBROUTINE, CALLED 6 TIMES, CODE SIZE REDUCTION:7 WORDS
                 SUBOPT_0x59:
001ff3 93e0 052b 	STS  _Boms,R30
001ff5 cdd8      	RJMP SUBOPT_0x0
                 
                 ;OPTIMIZER ADDED SUBROUTINE, CALLED 6 TIMES, CODE SIZE REDUCTION:7 WORDS
                 SUBOPT_0x5A:
001ff6 e0e0      	LDI  R30,LOW(0)
001ff7 93ea      	ST   -Y,R30
001ff8 cfc6      	RJMP SUBOPT_0x4E
                 
                 ;OPTIMIZER ADDED SUBROUTINE, CALLED 19 TIMES, CODE SIZE REDUCTION:51 WORDS
                 SUBOPT_0x5B:
001ff9 81e0      	LD   R30,Z
001ffa 93ea      	ST   -Y,R30
001ffb 2fe1      	MOV  R30,R17
001ffc cf9b      	RJMP SUBOPT_0x46
                 
                 ;OPTIMIZER ADDED SUBROUTINE, CALLED 19 TIMES, CODE SIZE REDUCTION:141 WORDS
                 SUBOPT_0x5C:
001ffd 93ea      	ST   -Y,R30
001ffe 2fe1      	MOV  R30,R17
001fff e0f0      	LDI  R31,0
002000 58e1      	SUBI R30,LOW(-_arrGioOff)
002001 4ff9      	SBCI R31,HIGH(-_arrGioOff)
002002 81e0      	LD   R30,Z
002003 93ea      	ST   -Y,R30
002004 2fe1      	MOV  R30,R17
002005 cfa2      	RJMP SUBOPT_0x49
                 
                 ;OPTIMIZER ADDED SUBROUTINE, CALLED 9 TIMES, CODE SIZE REDUCTION:61 WORDS
                 SUBOPT_0x5D:
002006 93ea      	ST   -Y,R30
002007 2fe1      	MOV  R30,R17
002008 e0f0      	LDI  R31,0
002009 5def      	SUBI R30,LOW(-_arrFlagHenGio)
00200a 4ff8      	SBCI R31,HIGH(-_arrFlagHenGio)
00200b 81e0      	LD   R30,Z
00200c 93ea      	ST   -Y,R30
00200d 2fa1      	MOV  R26,R17
00200e 940c 184d 	JMP  _checkHengioDen
                 
                 ;OPTIMIZER ADDED SUBROUTINE, CALLED 6 TIMES, CODE SIZE REDUCTION:7 WORDS
                 SUBOPT_0x5E:
002010 e0e1      	LDI  R30,LOW(1)
002011 93ea      	ST   -Y,R30
002012 cfac      	RJMP SUBOPT_0x4E
                 
                 ;OPTIMIZER ADDED SUBROUTINE, CALLED 6 TIMES, CODE SIZE REDUCTION:7 WORDS
                 SUBOPT_0x5F:
002013 e0e2      	LDI  R30,LOW(2)
002014 93ea      	ST   -Y,R30
002015 cfa9      	RJMP SUBOPT_0x4E
                 
                 ;OPTIMIZER ADDED SUBROUTINE, CALLED 9 TIMES, CODE SIZE REDUCTION:61 WORDS
                 SUBOPT_0x60:
002016 93ea      	ST   -Y,R30
002017 2fe1      	MOV  R30,R17
002018 e0f0      	LDI  R31,0
002019 5def      	SUBI R30,LOW(-_arrFlagHenGio)
00201a 4ff8      	SBCI R31,HIGH(-_arrFlagHenGio)
00201b 81e0      	LD   R30,Z
00201c 93ea      	ST   -Y,R30
00201d 2fa1      	MOV  R26,R17
00201e 940c 18be 	JMP  _checkHengioQuat
                 
                 ;OPTIMIZER ADDED SUBROUTINE, CALLED 3 TIMES, CODE SIZE REDUCTION:37 WORDS
                 SUBOPT_0x61:
002020 93e0 110a 	STS  4362,R30
002022 91e0 0065 	LDS  R30,101
002024 60e8      	ORI  R30,8
002025 93e0 0065 	STS  101,R30
                +
002027 e087     +LDI R24 , LOW ( 7 )
                +__DELAY_USB_LOOP :
002028 958a     +DEC R24
002029 f7f1     +BRNE __DELAY_USB_LOOP
                 	__DELAY_USB 7
00202a 91e0 0065 	LDS  R30,101
00202c 7fe7      	ANDI R30,0XF7
00202d 93e0 0065 	STS  101,R30
                +
00202f e087     +LDI R24 , LOW ( 7 )
                +__DELAY_USB_LOOP :
002030 958a     +DEC R24
002031 f7f1     +BRNE __DELAY_USB_LOOP
                 	__DELAY_USB 7
                +
002032 ee88     +LDI R24 , LOW ( 1000 )
002033 e093     +LDI R25 , HIGH ( 1000 )
                +__DELAY_USW_LOOP :
002034 9701     +SBIW R24 , 1
002035 f7f1     +BRNE __DELAY_USW_LOOP
                 	__DELAY_USW 1000
002036 9508      	RET
                 
                 ;OPTIMIZER ADDED SUBROUTINE, CALLED 2 TIMES, CODE SIZE REDUCTION:16 WORDS
                 SUBOPT_0x62:
002037 81e9      	LDD  R30,Y+1
002038 0fe1      	ADD  R30,R17
002039 93e0 110a 	STS  4362,R30
00203b 91e0 0065 	LDS  R30,101
00203d 60e8      	ORI  R30,8
00203e 93e0 0065 	STS  101,R30
                +
002040 e087     +LDI R24 , LOW ( 7 )
                +__DELAY_USB_LOOP :
002041 958a     +DEC R24
002042 f7f1     +BRNE __DELAY_USB_LOOP
                 	__DELAY_USB 7
002043 91e0 0065 	LDS  R30,101
002045 7fe7      	ANDI R30,0XF7
002046 93e0 0065 	STS  101,R30
                +
002048 ef84     +LDI R24 , LOW ( 500 )
002049 e091     +LDI R25 , HIGH ( 500 )
                +__DELAY_USW_LOOP :
00204a 9701     +SBIW R24 , 1
00204b f7f1     +BRNE __DELAY_USW_LOOP
                 	__DELAY_USW 500
00204c 9508      	RET
                 
                 ;OPTIMIZER ADDED SUBROUTINE, CALLED 2 TIMES, CODE SIZE REDUCTION:14 WORDS
                 SUBOPT_0x63:
00204d 93e0 1109 	STS  4361,R30
00204f 91e0 0065 	LDS  R30,101
002051 60e8      	ORI  R30,8
002052 93e0 0065 	STS  101,R30
                +
002054 e087     +LDI R24 , LOW ( 7 )
                +__DELAY_USB_LOOP :
002055 958a     +DEC R24
002056 f7f1     +BRNE __DELAY_USB_LOOP
                 	__DELAY_USB 7
002057 91e0 0065 	LDS  R30,101
002059 7fe7      	ANDI R30,0XF7
00205a 93e0 0065 	STS  101,R30
                +
00205c ef84     +LDI R24 , LOW ( 500 )
00205d e091     +LDI R25 , HIGH ( 500 )
                +__DELAY_USW_LOOP :
00205e 9701     +SBIW R24 , 1
00205f f7f1     +BRNE __DELAY_USW_LOOP
                 	__DELAY_USW 500
002060 9508      	RET
                 
                 ;OPTIMIZER ADDED SUBROUTINE, CALLED 5 TIMES, CODE SIZE REDUCTION:13 WORDS
                 SUBOPT_0x64:
002061 932a      	ST   -Y,R18
002062 85ad      	LDD  R26,Y+13
002063 85be      	LDD  R27,Y+13+1
002064 85ef      	LDD  R30,Y+15
002065 89f8      	LDD  R31,Y+15+1
002066 9509      	ICALL
002067 9508      	RET
                 
                 ;OPTIMIZER ADDED SUBROUTINE, CALLED 5 TIMES, CODE SIZE REDUCTION:9 WORDS
                 SUBOPT_0x65:
002068 89e8      	LDD  R30,Y+16
002069 89f9      	LDD  R31,Y+16+1
00206a 9734      	SBIW R30,4
00206b 8be8      	STD  Y+16,R30
00206c 8bf9      	STD  Y+16+1,R31
00206d 9508      	RET
                 
                 ;OPTIMIZER ADDED SUBROUTINE, CALLED 3 TIMES, CODE SIZE REDUCTION:3 WORDS
                 SUBOPT_0x66:
00206e 85ad      	LDD  R26,Y+13
00206f 85be      	LDD  R27,Y+13+1
002070 85ef      	LDD  R30,Y+15
002071 89f8      	LDD  R31,Y+15+1
002072 9509      	ICALL
002073 9508      	RET
                 
                 ;OPTIMIZER ADDED SUBROUTINE, CALLED 2 TIMES, CODE SIZE REDUCTION:4 WORDS
                 SUBOPT_0x67:
002074 89a8      	LDD  R26,Y+16
002075 89b9      	LDD  R27,Y+16+1
002076 9614      	ADIW R26,4
002077 940e 2160 	CALL __GETW1P
002079 83ee      	STD  Y+6,R30
00207a 83ff      	STD  Y+6+1,R31
00207b 81ae      	LDD  R26,Y+6
00207c 81bf      	LDD  R27,Y+6+1
00207d 9508      	RET
                 
                 ;OPTIMIZER ADDED SUBROUTINE, CALLED 2 TIMES, CODE SIZE REDUCTION:2 WORDS
                 SUBOPT_0x68:
00207e 89a8      	LDD  R26,Y+16
00207f 89b9      	LDD  R27,Y+16+1
002080 9614      	ADIW R26,4
002081 940e 2160 	CALL __GETW1P
002083 87ea      	STD  Y+10,R30
002084 87fb      	STD  Y+10+1,R31
002085 9508      	RET
                 
                 ;OPTIMIZER ADDED SUBROUTINE, CALLED 2 TIMES, CODE SIZE REDUCTION:1 WORDS
                 SUBOPT_0x69:
002086 01de      	MOVW R26,R28
002087 961c      	ADIW R26,12
002088 940e 2115 	CALL __ADDW2R15
00208a 940e 2160 	CALL __GETW1P
00208c 9508      	RET
                 
                 ;OPTIMIZER ADDED SUBROUTINE, CALLED 2 TIMES, CODE SIZE REDUCTION:3 WORDS
                 SUBOPT_0x6A:
00208d 940e 2115 	CALL __ADDW2R15
00208f 940e 2160 	CALL __GETW1P
002091 93fa      	ST   -Y,R31
002092 93ea      	ST   -Y,R30
002093 931a      	ST   -Y,R17
002094 930a      	ST   -Y,R16
002095 9508      	RET
                 
                 ;OPTIMIZER ADDED SUBROUTINE, CALLED 3 TIMES, CODE SIZE REDUCTION:3 WORDS
                 SUBOPT_0x6B:
002096 940e 20bf 	CALL _i2c_start
002098 eda0      	LDI  R26,LOW(208)
002099 940c 20f3 	JMP  _i2c_write
                 
                 ;OPTIMIZER ADDED SUBROUTINE, CALLED 3 TIMES, CODE SIZE REDUCTION:1 WORDS
                 SUBOPT_0x6C:
00209b 940e 20f3 	CALL _i2c_write
00209d 940c 20ce 	JMP  _i2c_stop
                 
                 ;OPTIMIZER ADDED SUBROUTINE, CALLED 2 TIMES, CODE SIZE REDUCTION:3 WORDS
                 SUBOPT_0x6D:
00209f 940e 20bf 	CALL _i2c_start
0020a1 eda1      	LDI  R26,LOW(209)
0020a2 940e 20f3 	CALL _i2c_write
0020a4 e0a1      	LDI  R26,LOW(1)
0020a5 940c 20d8 	JMP  _i2c_read
                 
                 ;OPTIMIZER ADDED SUBROUTINE, CALLED 2 TIMES, CODE SIZE REDUCTION:1 WORDS
                 SUBOPT_0x6E:
0020a7 2fae      	MOV  R26,R30
0020a8 940e 1dc1 	CALL _bcd2bin
0020aa 81a8      	LD   R26,Y
0020ab 81b9      	LDD  R27,Y+1
0020ac 93ec      	ST   X,R30
0020ad 9508      	RET
                 
                 ;OPTIMIZER ADDED SUBROUTINE, CALLED 3 TIMES, CODE SIZE REDUCTION:5 WORDS
                 SUBOPT_0x6F:
0020ae e0a1      	LDI  R26,LOW(1)
0020af 940e 20d8 	CALL _i2c_read
0020b1 2fae      	MOV  R26,R30
0020b2 940c 1dc1 	JMP  _bcd2bin
                 
                 ;OPTIMIZER ADDED SUBROUTINE, CALLED 2 TIMES, CODE SIZE REDUCTION:1 WORDS
                 SUBOPT_0x70:
0020b4 81aa      	LDD  R26,Y+2
0020b5 81bb      	LDD  R27,Y+2+1
0020b6 93ec      	ST   X,R30
0020b7 e0a0      	LDI  R26,LOW(0)
0020b8 940c 20d8 	JMP  _i2c_read
                 
                 
                 	.CSEG
                 	.equ __sda_bit=1
                 	.equ __scl_bit=0
                 	.equ __i2c_port=0x12 ;PORTD
                 	.equ __i2c_dir=__i2c_port-1
                 	.equ __i2c_pin=__i2c_port-2
                 
                 _i2c_init:
0020ba 9890      	cbi  __i2c_port,__scl_bit
0020bb 9891      	cbi  __i2c_port,__sda_bit
0020bc 9a88      	sbi  __i2c_dir,__scl_bit
0020bd 9889      	cbi  __i2c_dir,__sda_bit
0020be c015      	rjmp __i2c_delay2
                 _i2c_start:
0020bf 9889      	cbi  __i2c_dir,__sda_bit
0020c0 9888      	cbi  __i2c_dir,__scl_bit
0020c1 27ee      	clr  r30
0020c2 0000      	nop
0020c3 9b81      	sbis __i2c_pin,__sda_bit
0020c4 9508      	ret
0020c5 9b80      	sbis __i2c_pin,__scl_bit
0020c6 9508      	ret
0020c7 d004      	rcall __i2c_delay1
0020c8 9a89      	sbi  __i2c_dir,__sda_bit
0020c9 d002      	rcall __i2c_delay1
0020ca 9a88      	sbi  __i2c_dir,__scl_bit
0020cb e0e1      	ldi  r30,1
                 __i2c_delay1:
0020cc e261      	ldi  r22,33
0020cd c007      	rjmp __i2c_delay2l
                 _i2c_stop:
0020ce 9a89      	sbi  __i2c_dir,__sda_bit
0020cf 9a88      	sbi  __i2c_dir,__scl_bit
0020d0 d003      	rcall __i2c_delay2
0020d1 9888      	cbi  __i2c_dir,__scl_bit
0020d2 dff9      	rcall __i2c_delay1
0020d3 9889      	cbi  __i2c_dir,__sda_bit
                 __i2c_delay2:
0020d4 e463      	ldi  r22,67
                 __i2c_delay2l:
0020d5 956a      	dec  r22
0020d6 f7f1      	brne __i2c_delay2l
0020d7 9508      	ret
                 _i2c_read:
0020d8 e078      	ldi  r23,8
                 __i2c_read0:
0020d9 9888      	cbi  __i2c_dir,__scl_bit
0020da dff1      	rcall __i2c_delay1
                 __i2c_read3:
0020db 9b80      	sbis __i2c_pin,__scl_bit
0020dc cffe      	rjmp __i2c_read3
0020dd dfee      	rcall __i2c_delay1
0020de 9488      	clc
0020df 9981      	sbic __i2c_pin,__sda_bit
0020e0 9408      	sec
0020e1 9a88      	sbi  __i2c_dir,__scl_bit
0020e2 dff1      	rcall __i2c_delay2
0020e3 1fee      	rol  r30
0020e4 957a      	dec  r23
0020e5 f799      	brne __i2c_read0
0020e6 2f7a      	mov  r23,r26
0020e7 2377      	tst  r23
0020e8 f411      	brne __i2c_read1
0020e9 9889      	cbi  __i2c_dir,__sda_bit
0020ea c001      	rjmp __i2c_read2
                 __i2c_read1:
0020eb 9a89      	sbi  __i2c_dir,__sda_bit
                 __i2c_read2:
0020ec dfdf      	rcall __i2c_delay1
0020ed 9888      	cbi  __i2c_dir,__scl_bit
0020ee dfe5      	rcall __i2c_delay2
0020ef 9a88      	sbi  __i2c_dir,__scl_bit
0020f0 dfdb      	rcall __i2c_delay1
0020f1 9889      	cbi  __i2c_dir,__sda_bit
0020f2 cfd9      	rjmp __i2c_delay1
                 
                 _i2c_write:
0020f3 e078      	ldi  r23,8
                 __i2c_write0:
0020f4 0faa      	lsl  r26
0020f5 f410      	brcc __i2c_write1
0020f6 9889      	cbi  __i2c_dir,__sda_bit
0020f7 c001      	rjmp __i2c_write2
                 __i2c_write1:
0020f8 9a89      	sbi  __i2c_dir,__sda_bit
                 __i2c_write2:
0020f9 dfda      	rcall __i2c_delay2
0020fa 9888      	cbi  __i2c_dir,__scl_bit
0020fb dfd0      	rcall __i2c_delay1
                 __i2c_write3:
0020fc 9b80      	sbis __i2c_pin,__scl_bit
0020fd cffe      	rjmp __i2c_write3
0020fe dfcd      	rcall __i2c_delay1
0020ff 9a88      	sbi  __i2c_dir,__scl_bit
002100 957a      	dec  r23
002101 f791      	brne __i2c_write0
002102 9889      	cbi  __i2c_dir,__sda_bit
002103 dfc8      	rcall __i2c_delay1
002104 9888      	cbi  __i2c_dir,__scl_bit
002105 dfce      	rcall __i2c_delay2
002106 e0e1      	ldi  r30,1
002107 9981      	sbic __i2c_pin,__sda_bit
002108 27ee      	clr  r30
002109 9a88      	sbi  __i2c_dir,__scl_bit
00210a cfc1      	rjmp __i2c_delay1
                 
                 _delay_ms:
00210b 9610      	adiw r26,0
00210c f039      	breq __delay_ms1
                 __delay_ms0:
                +
00210d e888     +LDI R24 , LOW ( 0x1388 )
00210e e193     +LDI R25 , HIGH ( 0x1388 )
                +__DELAY_USW_LOOP :
00210f 9701     +SBIW R24 , 1
002110 f7f1     +BRNE __DELAY_USW_LOOP
                 	__DELAY_USW 0x1388
002111 95a8      	wdr
002112 9711      	sbiw r26,1
002113 f7c9      	brne __delay_ms0
                 __delay_ms1:
002114 9508      	ret
                 
                 __ADDW2R15:
002115 2400      	CLR  R0
002116 0daf      	ADD  R26,R15
002117 1db0      	ADC  R27,R0
002118 9508      	RET
                 
                 __ANEGW1:
002119 95f1      	NEG  R31
00211a 95e1      	NEG  R30
00211b 40f0      	SBCI R31,0
00211c 9508      	RET
                 
                 __CWD1:
00211d 2f6f      	MOV  R22,R31
00211e 0f66      	ADD  R22,R22
00211f 0b66      	SBC  R22,R22
002120 2f76      	MOV  R23,R22
002121 9508      	RET
                 
                 __EQB12:
002122 17ea      	CP   R30,R26
002123 e0e1      	LDI  R30,1
002124 f009      	BREQ __EQB12T
002125 27ee      	CLR  R30
                 __EQB12T:
002126 9508      	RET
                 
                 __GEB12U:
002127 17ae      	CP   R26,R30
002128 e0e1      	LDI  R30,1
002129 f408      	BRSH __GEB12U1
00212a 27ee      	CLR  R30
                 __GEB12U1:
00212b 9508      	RET
                 
                 __DIVW21U:
00212c 2400      	CLR  R0
00212d 2411      	CLR  R1
00212e e190      	LDI  R25,16
                 __DIVW21U1:
00212f 0faa      	LSL  R26
002130 1fbb      	ROL  R27
002131 1c00      	ROL  R0
002132 1c11      	ROL  R1
002133 1a0e      	SUB  R0,R30
002134 0a1f      	SBC  R1,R31
002135 f418      	BRCC __DIVW21U2
002136 0e0e      	ADD  R0,R30
002137 1e1f      	ADC  R1,R31
002138 c001      	RJMP __DIVW21U3
                 __DIVW21U2:
002139 60a1      	SBR  R26,1
                 __DIVW21U3:
00213a 959a      	DEC  R25
00213b f799      	BRNE __DIVW21U1
00213c 01fd      	MOVW R30,R26
00213d 01d0      	MOVW R26,R0
00213e 9508      	RET
                 
                 __DIVW21:
00213f d012      	RCALL __CHKSIGNW
002140 dfeb      	RCALL __DIVW21U
002141 f40e      	BRTC __DIVW211
002142 dfd6      	RCALL __ANEGW1
                 __DIVW211:
002143 9508      	RET
                 
                 __MODW21:
002144 94e8      	CLT
002145 ffb7      	SBRS R27,7
002146 c004      	RJMP __MODW211
002147 95a0      	COM  R26
002148 95b0      	COM  R27
002149 9611      	ADIW R26,1
00214a 9468      	SET
                 __MODW211:
00214b fdf7      	SBRC R31,7
00214c dfcc      	RCALL __ANEGW1
00214d dfde      	RCALL __DIVW21U
00214e 01fd      	MOVW R30,R26
00214f f40e      	BRTC __MODW212
002150 dfc8      	RCALL __ANEGW1
                 __MODW212:
002151 9508      	RET
                 
                 __CHKSIGNW:
002152 94e8      	CLT
002153 fff7      	SBRS R31,7
002154 c002      	RJMP __CHKSW1
002155 dfc3      	RCALL __ANEGW1
002156 9468      	SET
                 __CHKSW1:
002157 ffb7      	SBRS R27,7
002158 c006      	RJMP __CHKSW2
002159 95a0      	COM  R26
00215a 95b0      	COM  R27
00215b 9611      	ADIW R26,1
00215c f800      	BLD  R0,0
00215d 9403      	INC  R0
00215e fa00      	BST  R0,0
                 __CHKSW2:
00215f 9508      	RET
                 
                 __GETW1P:
002160 91ed      	LD   R30,X+
002161 91fc      	LD   R31,X
002162 9711      	SBIW R26,1
002163 9508      	RET
                 
                 __GETW1PF:
002164 9005      	LPM  R0,Z+
002165 91f4      	LPM  R31,Z
002166 2de0      	MOV  R30,R0
002167 9508      	RET
                 
                 __GETW2PF:
002168 91a5      	LPM  R26,Z+
002169 91b4      	LPM  R27,Z
00216a 9508      	RET
                 
                 __PUTPARD1:
00216b 937a      	ST   -Y,R23
00216c 936a      	ST   -Y,R22
00216d 93fa      	ST   -Y,R31
00216e 93ea      	ST   -Y,R30
00216f 9508      	RET
                 
                 __SAVELOCR6:
002170 935a      	ST   -Y,R21
                 __SAVELOCR5:
002171 934a      	ST   -Y,R20
                 __SAVELOCR4:
002172 933a      	ST   -Y,R19
                 __SAVELOCR3:
002173 932a      	ST   -Y,R18
                 __SAVELOCR2:
002174 931a      	ST   -Y,R17
002175 930a      	ST   -Y,R16
002176 9508      	RET
                 
                 __LOADLOCR6:
002177 815d      	LDD  R21,Y+5
                 __LOADLOCR5:
002178 814c      	LDD  R20,Y+4
                 __LOADLOCR4:
002179 813b      	LDD  R19,Y+3
                 __LOADLOCR3:
00217a 812a      	LDD  R18,Y+2
                 __LOADLOCR2:
00217b 8119      	LDD  R17,Y+1
00217c 8108      	LD   R16,Y
00217d 9508      	RET
                 
                 ;END OF CODE MARKER
                 __END_OF_CODE:


RESOURCE USE INFORMATION
------------------------

Notice:
The register and instruction counts are symbol table hit counts,
and hence implicitly used resources are not counted, eg, the
'lpm' instruction without operands implicitly uses r0 and z,
none of which are counted.

x,y,z are separate entities in the symbol table and are
counted separately from r26..r31 here.

.dseg memory usage only counts static data declared with .byte

ATmega128 register use summary:
r0 :  54 r1 :   7 r2 :   0 r3 :   0 r4 :   3 r5 :   3 r6 :  47 r7 :  10 
r8 :   2 r9 :   2 r10:   2 r11:   2 r12:   4 r13:   4 r14:   0 r15:   9 
r16:  48 r17:  77 r18:  66 r19:  11 r20:   9 r21:  17 r22:  40 r23:  34 
r24:  43 r25:  10 r26: 488 r27:  65 r28:  35 r29:   1 r30:1088 r31: 331 
x  :  36 y  : 422 z  :  79 
Registers used: 32 out of 35 (91.4%)

ATmega128 instruction use summary:
.lds  :   0 .lds.l:   0 .sts  :   0 .sts.l:   0 adc   :   2 add   :  12 
adiw  :  57 and   :   0 andi  :  63 asr   :   0 bclr  :   0 bld   :   1 
brbc  :   0 brbs  :   0 brcc  :   2 brcs  :   0 break :   0 breq  :  49 
brge  :   0 brhc  :   0 brhs  :   0 brid  :   0 brie  :   0 brlo  :  13 
brlt  :   0 brmi  :   1 brne  : 192 brpl  :   1 brsh  :   6 brtc  :   2 
brts  :   0 brvc  :   0 brvs  :   0 bset  :   0 bst   :   1 call  : 570 
cbi   :  18 cbr   :   0 clc   :   1 clh   :   0 cli   :   2 cln   :   0 
clr   :  21 cls   :   0 clt   :   2 clv   :   0 clz   :   0 com   :   4 
cp    :  13 cpc   :  85 cpi   : 184 cpse  :   0 dec   :  11 des   :   0 
elpm  :   0 eor   :   0 fmul  :   0 fmuls :   0 fmulsu:   0 icall :   4 
ijmp  :   0 in    :   9 inc   :   4 jmp   :  48 ld    :  85 ldd   : 169 
ldi   : 514 lds   : 111 lpm   :  55 lsl   :  19 lsr   :   0 mov   :  92 
movw  :  60 mul   :   1 muls  :   1 mulsu :   0 neg   :   2 nop   :   1 
or    :  16 ori   :  29 out   :  44 pop   :   2 push  :   2 rcall :  36 
ret   : 128 reti  :   2 rjmp  : 288 rol   :   4 ror   :   2 sbc   :   3 
sbci  :  52 sbi   :  17 sbic  :  29 sbis  :  25 sbiw  :  43 sbr   :   1 
sbrc  :   3 sbrs  :  13 sec   :   1 seh   :   0 sei   :   2 sen   :   0 
ser   :   0 ses   :   0 set   :   2 sev   :   0 sez   :   0 sleep :   0 
spm   :   0 st    : 190 std   :  60 sts   : 112 sub   :   2 subi  :  83 
swap  :   4 tst   :   6 wdr   :   1 
Instructions used: 72 out of 117 (61.5%)

ATmega128 memory use summary [bytes]:
Segment   Begin    End      Code   Data   Used    Size   Use%
---------------------------------------------------------------
[.cseg] 0x000000 0x0042fc   9018   8130  17148  131072  13.1%
[.dseg] 0x000100 0x000741      0    577    577    4096  14.1%
[.eseg] 0x000000 0x000000      0      0      0    4096   0.0%

Assembly complete, 0 errors, 93 warnings
